ccopy_reg
_reconstructor
p0
(cindra.pysb_assembler
PysbAssembler
p1
c__builtin__
object
p2
Ntp3
Rp4
(dp5
S'model'
p6
g0
(cpysb.core
Model
p7
g2
Ntp8
Rp9
(dp10
S'reactions'
p11
(lp12
sS'initial_conditions'
p13
(lp14
(g0
(cpysb.core
ComplexPattern
p15
g2
Ntp16
Rp17
(dp18
S'compartment'
p19
NsS'monomer_patterns'
p20
(lp21
g0
(cpysb.core
MonomerPattern
p22
g2
Ntp23
Rp24
(dp25
g19
NsS'monomer'
p26
g0
(cpysb.core
Monomer
p27
g2
Ntp28
Rp29
(dp30
S'site_states'
p31
(dp32
sS'name'
p33
S'Raf'
p34
sS'_export'
p35
I00
sS'sites'
p36
(lp37
sbsS'site_conditions'
p38
(dp39
sbasS'match_once'
p40
I00
sbcpysb.core
Parameter
p41
(S'Raf_0'
p42
F100.0
I00
tp43
Rp44
(dp45
g35
I00
sS'value'
p46
F100.0
sbtp47
a(g0
(g15
g2
Ntp48
Rp49
(dp50
g19
Nsg20
(lp51
g0
(g22
g2
Ntp52
Rp53
(dp54
g19
Nsg26
g0
(g27
g2
Ntp55
Rp56
(dp57
g31
(dp58
S'phospho'
p59
(lp60
S'u'
p61
aS'p'
p62
assg33
S'MEK'
p63
sg35
I00
sg36
(lp64
g59
asbsg38
(dp65
g59
g61
ssbasg40
I00
sbg41
(S'MEK_0'
p66
F100.0
I00
tp67
Rp68
(dp69
g35
I00
sg46
F100.0
sbtp70
a(g0
(g15
g2
Ntp71
Rp72
(dp73
g19
Nsg20
(lp74
g0
(g22
g2
Ntp75
Rp76
(dp77
g19
Nsg26
g0
(g27
g2
Ntp78
Rp79
(dp80
g31
(dp81
S'S226'
p82
(lp83
g61
ag62
asS'S222'
p84
(lp85
g61
ag62
assg33
VMAP2K2
p86
sg35
I00
sg36
(lp87
g84
ag82
asbsg38
(dp88
g82
g61
sg84
g61
ssbasg40
I00
sbg41
(VMAP2K2_0
p89
F100.0
I00
tp90
Rp91
(dp92
g35
I00
sg46
F100.0
sbtp93
a(g0
(g15
g2
Ntp94
Rp95
(dp96
g19
Nsg20
(lp97
g0
(g22
g2
Ntp98
Rp99
(dp100
g19
Nsg26
g0
(g27
g2
Ntp101
Rp102
(dp103
g31
(dp104
S'S218'
p105
(lp106
g61
ag62
asS'S222'
p107
(lp108
g61
ag62
assg33
VMAP2K1
p109
sg35
I00
sg36
(lp110
g105
ag107
asbsg38
(dp111
g105
g61
sg107
g61
ssbasg40
I00
sbg41
(VMAP2K1_0
p112
F100.0
I00
tp113
Rp114
(dp115
g35
I00
sg46
F100.0
sbtp116
a(g0
(g15
g2
Ntp117
Rp118
(dp119
g19
Nsg20
(lp120
g0
(g22
g2
Ntp121
Rp122
(dp123
g19
Nsg26
g0
(g27
g2
Ntp124
Rp125
(dp126
g31
(dp127
sg33
S'RAF1_BRAF'
p128
sg35
I00
sg36
(lp129
sbsg38
(dp130
sbasg40
I00
sbg41
(S'RAF1_BRAF_0'
p131
F100.0
I00
tp132
Rp133
(dp134
g35
I00
sg46
F100.0
sbtp135
a(g0
(g15
g2
Ntp136
Rp137
(dp138
g19
Nsg20
(lp139
g0
(g22
g2
Ntp140
Rp141
(dp142
g19
Nsg26
g0
(g27
g2
Ntp143
Rp144
(dp145
g31
(dp146
sg33
VARAF
p147
sg35
I00
sg36
(lp148
sbsg38
(dp149
sbasg40
I00
sbg41
(VARAF_0
p150
F100.0
I00
tp151
Rp152
(dp153
g35
I00
sg46
F100.0
sbtp154
a(g0
(g15
g2
Ntp155
Rp156
(dp157
g19
Nsg20
(lp158
g0
(g22
g2
Ntp159
Rp160
(dp161
g19
Nsg26
g0
(g27
g2
Ntp162
Rp163
(dp164
g31
(dp165
sg33
VBRAF
p166
sg35
I00
sg36
(lp167
sbsg38
(dp168
sbasg40
I00
sbg41
(VBRAF_0
p169
F100.0
I00
tp170
Rp171
(dp172
g35
I00
sg46
F100.0
sbtp173
a(g0
(g15
g2
Ntp174
Rp175
(dp176
g19
Nsg20
(lp177
g0
(g22
g2
Ntp178
Rp179
(dp180
g19
Nsg26
g0
(g27
g2
Ntp181
Rp182
(dp183
g31
(dp184
sg33
VRAF1
p185
sg35
I00
sg36
(lp186
sbsg38
(dp187
sbasg40
I00
sbg41
(VRAF1_0
p188
F100.0
I00
tp189
Rp190
(dp191
g35
I00
sg46
F100.0
sbtp192
asg33
NsS'parameters'
p193
g0
(cpysb.core
ComponentSet
p194
g2
Ntp195
Rp196
(dp197
S'_index_map'
p198
(dp199
Vkf_am_phos_1
p200
I0
sS'kf_rm_phos_10'
p201
I15
sg42
I16
sg131
I20
sVkf_rm_phos_7
p202
I12
sVkf_rm_phos_6
p203
I11
sVkf_rm_phos_5
p204
I10
sVkf_rm_phos_4
p205
I9
sVkf_rm_phos_3
p206
I8
sVkf_rm_phos_2
p207
I7
sg89
I18
sg150
I21
sg66
I17
sVkf_rm_phos_9
p208
I14
sVkf_rm_phos_8
p209
I13
sVkf_rm_phos_1
p210
I6
sg112
I19
sg169
I22
sg188
I23
sVkf_bm_phos_5
p211
I5
sVkf_bm_phos_4
p212
I4
sVkf_bm_phos_3
p213
I3
sVkf_bm_phos_2
p214
I2
sVkf_bm_phos_1
p215
I1
ssS'_elements'
p216
(lp217
g41
(g200
F1e-06
I00
tp218
Rp219
(dp220
g35
I00
sg46
F1e-06
sbag41
(g215
F1e-06
I00
tp221
Rp222
(dp223
g35
I00
sg46
F1e-06
sbag41
(g214
F1e-06
I00
tp224
Rp225
(dp226
g35
I00
sg46
F1e-06
sbag41
(g213
F1e-06
I00
tp227
Rp228
(dp229
g35
I00
sg46
F1e-06
sbag41
(g212
F1e-06
I00
tp230
Rp231
(dp232
g35
I00
sg46
F1e-06
sbag41
(g211
F1e-06
I00
tp233
Rp234
(dp235
g35
I00
sg46
F1e-06
sbag41
(g210
F1e-06
I00
tp236
Rp237
(dp238
g35
I00
sg46
F1e-06
sbag41
(g207
F1e-06
I00
tp239
Rp240
(dp241
g35
I00
sg46
F1e-06
sbag41
(g206
F1e-06
I00
tp242
Rp243
(dp244
g35
I00
sg46
F1e-06
sbag41
(g205
F1e-06
I00
tp245
Rp246
(dp247
g35
I00
sg46
F1e-06
sbag41
(g204
F1e-06
I00
tp248
Rp249
(dp250
g35
I00
sg46
F1e-06
sbag41
(g203
F1e-06
I00
tp251
Rp252
(dp253
g35
I00
sg46
F1e-06
sbag41
(g202
F1e-06
I00
tp254
Rp255
(dp256
g35
I00
sg46
F1e-06
sbag41
(g209
F1e-06
I00
tp257
Rp258
(dp259
g35
I00
sg46
F1e-06
sbag41
(g208
F1e-06
I00
tp260
Rp261
(dp262
g35
I00
sg46
F1e-06
sbag41
(g201
F1e-06
I00
tp263
Rp264
(dp265
g35
I00
sg46
F1e-06
sbag44
ag68
ag91
ag114
ag133
ag152
ag171
ag190
asS'_map'
p266
(dp267
g200
g219
sg201
g264
sg42
g44
sg131
g133
sg202
g255
sg203
g252
sg204
g249
sg205
g246
sg206
g243
sg207
g240
sg89
g91
sg150
g152
sg66
g68
sg208
g261
sg209
g258
sg210
g237
sg112
g114
sg169
g171
sg188
g190
sg211
g234
sg212
g231
sg213
g228
sg214
g225
sg215
g222
ssbsS'rules'
p268
g0
(g194
g2
Ntp269
Rp270
(dp271
g198
(dp272
VRAF1_BRAF_phospho_MAP2K1_S218_1
p273
I6
sVRAF1_phospho_MAP2K2_S222_1
p274
I12
sVBRAF_phospho_MAP2K2_S222_1
p275
I3
sVBRAF_phospho_MAP2K1_S222_1
p276
I2
sVRAF1_phospho_MAP2K1_S222_1
p277
I11
sVRAF1_BRAF_phospho_MAP2K2_S226_1
p278
I9
sVRAF1_phospho_MAP2K1_S218_1
p279
I10
sVRAF1_BRAF_phospho_MAP2K2_S222_1
p280
I8
sVRAF1_phospho_MEK_phospho_1
p281
I14
sVRAF1_BRAF_phospho_MAP2K1_S222_1
p282
I7
sVBRAF_phospho_MAP2K1_S218_1
p283
I1
sVARAF_phospho_MEK_phospho_1
p284
I0
sVBRAF_phospho_MAP2K2_S226_1
p285
I4
sVRAF1_phospho_MAP2K2_S226_1
p286
I13
sS'Raf_phospho_MEK_phospho_1'
p287
I15
sVBRAF_phospho_MEK_phospho_1
p288
I5
ssg216
(lp289
g0
(cpysb.core
Rule
p290
g2
Ntp291
Rp292
(dp293
S'rate_forward'
p294
g219
sS'reactant_pattern'
p295
g0
(cpysb.core
ReactionPattern
p296
g2
Ntp297
Rp298
(dp299
S'complex_patterns'
p300
(lp301
g0
(g15
g2
Ntp302
Rp303
(dp304
g19
Nsg20
(lp305
g0
(g22
g2
Ntp306
Rp307
(dp308
g19
Nsg26
g144
sg38
(dp309
sbasg40
I00
sbag0
(g15
g2
Ntp310
Rp311
(dp312
g19
Nsg20
(lp313
g0
(g22
g2
Ntp314
Rp315
(dp316
g19
Nsg26
g56
sg38
(dp317
S'phospho'
p318
g61
ssbasg40
I00
sbasbsg33
g284
sS'is_reversible'
p319
I00
sS'rule_expression'
p320
g0
(cpysb.core
RuleExpression
p321
g2
Ntp322
Rp323
(dp324
S'product_pattern'
p325
g0
(g296
g2
Ntp326
Rp327
(dp328
g300
(lp329
g0
(g15
g2
Ntp330
Rp331
(dp332
g19
Nsg20
(lp333
g0
(g22
g2
Ntp334
Rp335
(dp336
g19
Nsg26
g144
sg38
(dp337
sbasg40
I00
sbag0
(g15
g2
Ntp338
Rp339
(dp340
g19
Nsg20
(lp341
g0
(g22
g2
Ntp342
Rp343
(dp344
g19
Nsg26
g56
sg38
(dp345
g318
g62
ssbasg40
I00
sbasbsg295
g298
sg319
I00
sbsS'move_connected'
p346
I00
sg35
I00
sg325
g327
sS'delete_molecules'
p347
I00
sS'rate_reverse'
p348
Nsbag0
(g290
g2
Ntp349
Rp350
(dp351
g294
g222
sg295
g0
(g296
g2
Ntp352
Rp353
(dp354
g300
(lp355
g0
(g15
g2
Ntp356
Rp357
(dp358
g19
Nsg20
(lp359
g0
(g22
g2
Ntp360
Rp361
(dp362
g19
Nsg26
g163
sg38
(dp363
sbasg40
I00
sbag0
(g15
g2
Ntp364
Rp365
(dp366
g19
Nsg20
(lp367
g0
(g22
g2
Ntp368
Rp369
(dp370
g19
Nsg26
g102
sg38
(dp371
S'S218'
p372
g61
ssbasg40
I00
sbasbsg33
g283
sg319
I00
sg320
g0
(g321
g2
Ntp373
Rp374
(dp375
g325
g0
(g296
g2
Ntp376
Rp377
(dp378
g300
(lp379
g0
(g15
g2
Ntp380
Rp381
(dp382
g19
Nsg20
(lp383
g0
(g22
g2
Ntp384
Rp385
(dp386
g19
Nsg26
g163
sg38
(dp387
sbasg40
I00
sbag0
(g15
g2
Ntp388
Rp389
(dp390
g19
Nsg20
(lp391
g0
(g22
g2
Ntp392
Rp393
(dp394
g19
Nsg26
g102
sg38
(dp395
g372
g62
ssbasg40
I00
sbasbsg295
g353
sg319
I00
sbsg346
I00
sg35
I00
sg325
g377
sg347
I00
sg348
Nsbag0
(g290
g2
Ntp396
Rp397
(dp398
g294
g225
sg295
g0
(g296
g2
Ntp399
Rp400
(dp401
g300
(lp402
g0
(g15
g2
Ntp403
Rp404
(dp405
g19
Nsg20
(lp406
g0
(g22
g2
Ntp407
Rp408
(dp409
g19
Nsg26
g163
sg38
(dp410
sbasg40
I00
sbag0
(g15
g2
Ntp411
Rp412
(dp413
g19
Nsg20
(lp414
g0
(g22
g2
Ntp415
Rp416
(dp417
g19
Nsg26
g102
sg38
(dp418
S'S222'
p419
g61
ssbasg40
I00
sbasbsg33
g276
sg319
I00
sg320
g0
(g321
g2
Ntp420
Rp421
(dp422
g325
g0
(g296
g2
Ntp423
Rp424
(dp425
g300
(lp426
g0
(g15
g2
Ntp427
Rp428
(dp429
g19
Nsg20
(lp430
g0
(g22
g2
Ntp431
Rp432
(dp433
g19
Nsg26
g163
sg38
(dp434
sbasg40
I00
sbag0
(g15
g2
Ntp435
Rp436
(dp437
g19
Nsg20
(lp438
g0
(g22
g2
Ntp439
Rp440
(dp441
g19
Nsg26
g102
sg38
(dp442
g419
g62
ssbasg40
I00
sbasbsg295
g400
sg319
I00
sbsg346
I00
sg35
I00
sg325
g424
sg347
I00
sg348
Nsbag0
(g290
g2
Ntp443
Rp444
(dp445
g294
g228
sg295
g0
(g296
g2
Ntp446
Rp447
(dp448
g300
(lp449
g0
(g15
g2
Ntp450
Rp451
(dp452
g19
Nsg20
(lp453
g0
(g22
g2
Ntp454
Rp455
(dp456
g19
Nsg26
g163
sg38
(dp457
sbasg40
I00
sbag0
(g15
g2
Ntp458
Rp459
(dp460
g19
Nsg20
(lp461
g0
(g22
g2
Ntp462
Rp463
(dp464
g19
Nsg26
g79
sg38
(dp465
S'S222'
p466
g61
ssbasg40
I00
sbasbsg33
g275
sg319
I00
sg320
g0
(g321
g2
Ntp467
Rp468
(dp469
g325
g0
(g296
g2
Ntp470
Rp471
(dp472
g300
(lp473
g0
(g15
g2
Ntp474
Rp475
(dp476
g19
Nsg20
(lp477
g0
(g22
g2
Ntp478
Rp479
(dp480
g19
Nsg26
g163
sg38
(dp481
sbasg40
I00
sbag0
(g15
g2
Ntp482
Rp483
(dp484
g19
Nsg20
(lp485
g0
(g22
g2
Ntp486
Rp487
(dp488
g19
Nsg26
g79
sg38
(dp489
g466
g62
ssbasg40
I00
sbasbsg295
g447
sg319
I00
sbsg346
I00
sg35
I00
sg325
g471
sg347
I00
sg348
Nsbag0
(g290
g2
Ntp490
Rp491
(dp492
g294
g231
sg295
g0
(g296
g2
Ntp493
Rp494
(dp495
g300
(lp496
g0
(g15
g2
Ntp497
Rp498
(dp499
g19
Nsg20
(lp500
g0
(g22
g2
Ntp501
Rp502
(dp503
g19
Nsg26
g163
sg38
(dp504
sbasg40
I00
sbag0
(g15
g2
Ntp505
Rp506
(dp507
g19
Nsg20
(lp508
g0
(g22
g2
Ntp509
Rp510
(dp511
g19
Nsg26
g79
sg38
(dp512
S'S226'
p513
g61
ssbasg40
I00
sbasbsg33
g285
sg319
I00
sg320
g0
(g321
g2
Ntp514
Rp515
(dp516
g325
g0
(g296
g2
Ntp517
Rp518
(dp519
g300
(lp520
g0
(g15
g2
Ntp521
Rp522
(dp523
g19
Nsg20
(lp524
g0
(g22
g2
Ntp525
Rp526
(dp527
g19
Nsg26
g163
sg38
(dp528
sbasg40
I00
sbag0
(g15
g2
Ntp529
Rp530
(dp531
g19
Nsg20
(lp532
g0
(g22
g2
Ntp533
Rp534
(dp535
g19
Nsg26
g79
sg38
(dp536
g513
g62
ssbasg40
I00
sbasbsg295
g494
sg319
I00
sbsg346
I00
sg35
I00
sg325
g518
sg347
I00
sg348
Nsbag0
(g290
g2
Ntp537
Rp538
(dp539
g294
g234
sg295
g0
(g296
g2
Ntp540
Rp541
(dp542
g300
(lp543
g0
(g15
g2
Ntp544
Rp545
(dp546
g19
Nsg20
(lp547
g0
(g22
g2
Ntp548
Rp549
(dp550
g19
Nsg26
g163
sg38
(dp551
sbasg40
I00
sbag0
(g15
g2
Ntp552
Rp553
(dp554
g19
Nsg20
(lp555
g0
(g22
g2
Ntp556
Rp557
(dp558
g19
Nsg26
g56
sg38
(dp559
S'phospho'
p560
g61
ssbasg40
I00
sbasbsg33
g288
sg319
I00
sg320
g0
(g321
g2
Ntp561
Rp562
(dp563
g325
g0
(g296
g2
Ntp564
Rp565
(dp566
g300
(lp567
g0
(g15
g2
Ntp568
Rp569
(dp570
g19
Nsg20
(lp571
g0
(g22
g2
Ntp572
Rp573
(dp574
g19
Nsg26
g163
sg38
(dp575
sbasg40
I00
sbag0
(g15
g2
Ntp576
Rp577
(dp578
g19
Nsg20
(lp579
g0
(g22
g2
Ntp580
Rp581
(dp582
g19
Nsg26
g56
sg38
(dp583
g560
g62
ssbasg40
I00
sbasbsg295
g541
sg319
I00
sbsg346
I00
sg35
I00
sg325
g565
sg347
I00
sg348
Nsbag0
(g290
g2
Ntp584
Rp585
(dp586
g294
g237
sg295
g0
(g296
g2
Ntp587
Rp588
(dp589
g300
(lp590
g0
(g15
g2
Ntp591
Rp592
(dp593
g19
Nsg20
(lp594
g0
(g22
g2
Ntp595
Rp596
(dp597
g19
Nsg26
g125
sg38
(dp598
sbasg40
I00
sbag0
(g15
g2
Ntp599
Rp600
(dp601
g19
Nsg20
(lp602
g0
(g22
g2
Ntp603
Rp604
(dp605
g19
Nsg26
g102
sg38
(dp606
S'S218'
p607
g61
ssbasg40
I00
sbasbsg33
g273
sg319
I00
sg320
g0
(g321
g2
Ntp608
Rp609
(dp610
g325
g0
(g296
g2
Ntp611
Rp612
(dp613
g300
(lp614
g0
(g15
g2
Ntp615
Rp616
(dp617
g19
Nsg20
(lp618
g0
(g22
g2
Ntp619
Rp620
(dp621
g19
Nsg26
g125
sg38
(dp622
sbasg40
I00
sbag0
(g15
g2
Ntp623
Rp624
(dp625
g19
Nsg20
(lp626
g0
(g22
g2
Ntp627
Rp628
(dp629
g19
Nsg26
g102
sg38
(dp630
g607
g62
ssbasg40
I00
sbasbsg295
g588
sg319
I00
sbsg346
I00
sg35
I00
sg325
g612
sg347
I00
sg348
Nsbag0
(g290
g2
Ntp631
Rp632
(dp633
g294
g240
sg295
g0
(g296
g2
Ntp634
Rp635
(dp636
g300
(lp637
g0
(g15
g2
Ntp638
Rp639
(dp640
g19
Nsg20
(lp641
g0
(g22
g2
Ntp642
Rp643
(dp644
g19
Nsg26
g125
sg38
(dp645
sbasg40
I00
sbag0
(g15
g2
Ntp646
Rp647
(dp648
g19
Nsg20
(lp649
g0
(g22
g2
Ntp650
Rp651
(dp652
g19
Nsg26
g102
sg38
(dp653
S'S222'
p654
g61
ssbasg40
I00
sbasbsg33
g282
sg319
I00
sg320
g0
(g321
g2
Ntp655
Rp656
(dp657
g325
g0
(g296
g2
Ntp658
Rp659
(dp660
g300
(lp661
g0
(g15
g2
Ntp662
Rp663
(dp664
g19
Nsg20
(lp665
g0
(g22
g2
Ntp666
Rp667
(dp668
g19
Nsg26
g125
sg38
(dp669
sbasg40
I00
sbag0
(g15
g2
Ntp670
Rp671
(dp672
g19
Nsg20
(lp673
g0
(g22
g2
Ntp674
Rp675
(dp676
g19
Nsg26
g102
sg38
(dp677
g654
g62
ssbasg40
I00
sbasbsg295
g635
sg319
I00
sbsg346
I00
sg35
I00
sg325
g659
sg347
I00
sg348
Nsbag0
(g290
g2
Ntp678
Rp679
(dp680
g294
g243
sg295
g0
(g296
g2
Ntp681
Rp682
(dp683
g300
(lp684
g0
(g15
g2
Ntp685
Rp686
(dp687
g19
Nsg20
(lp688
g0
(g22
g2
Ntp689
Rp690
(dp691
g19
Nsg26
g125
sg38
(dp692
sbasg40
I00
sbag0
(g15
g2
Ntp693
Rp694
(dp695
g19
Nsg20
(lp696
g0
(g22
g2
Ntp697
Rp698
(dp699
g19
Nsg26
g79
sg38
(dp700
S'S222'
p701
g61
ssbasg40
I00
sbasbsg33
g280
sg319
I00
sg320
g0
(g321
g2
Ntp702
Rp703
(dp704
g325
g0
(g296
g2
Ntp705
Rp706
(dp707
g300
(lp708
g0
(g15
g2
Ntp709
Rp710
(dp711
g19
Nsg20
(lp712
g0
(g22
g2
Ntp713
Rp714
(dp715
g19
Nsg26
g125
sg38
(dp716
sbasg40
I00
sbag0
(g15
g2
Ntp717
Rp718
(dp719
g19
Nsg20
(lp720
g0
(g22
g2
Ntp721
Rp722
(dp723
g19
Nsg26
g79
sg38
(dp724
g701
g62
ssbasg40
I00
sbasbsg295
g682
sg319
I00
sbsg346
I00
sg35
I00
sg325
g706
sg347
I00
sg348
Nsbag0
(g290
g2
Ntp725
Rp726
(dp727
g294
g246
sg295
g0
(g296
g2
Ntp728
Rp729
(dp730
g300
(lp731
g0
(g15
g2
Ntp732
Rp733
(dp734
g19
Nsg20
(lp735
g0
(g22
g2
Ntp736
Rp737
(dp738
g19
Nsg26
g125
sg38
(dp739
sbasg40
I00
sbag0
(g15
g2
Ntp740
Rp741
(dp742
g19
Nsg20
(lp743
g0
(g22
g2
Ntp744
Rp745
(dp746
g19
Nsg26
g79
sg38
(dp747
S'S226'
p748
g61
ssbasg40
I00
sbasbsg33
g278
sg319
I00
sg320
g0
(g321
g2
Ntp749
Rp750
(dp751
g325
g0
(g296
g2
Ntp752
Rp753
(dp754
g300
(lp755
g0
(g15
g2
Ntp756
Rp757
(dp758
g19
Nsg20
(lp759
g0
(g22
g2
Ntp760
Rp761
(dp762
g19
Nsg26
g125
sg38
(dp763
sbasg40
I00
sbag0
(g15
g2
Ntp764
Rp765
(dp766
g19
Nsg20
(lp767
g0
(g22
g2
Ntp768
Rp769
(dp770
g19
Nsg26
g79
sg38
(dp771
g748
g62
ssbasg40
I00
sbasbsg295
g729
sg319
I00
sbsg346
I00
sg35
I00
sg325
g753
sg347
I00
sg348
Nsbag0
(g290
g2
Ntp772
Rp773
(dp774
g294
g249
sg295
g0
(g296
g2
Ntp775
Rp776
(dp777
g300
(lp778
g0
(g15
g2
Ntp779
Rp780
(dp781
g19
Nsg20
(lp782
g0
(g22
g2
Ntp783
Rp784
(dp785
g19
Nsg26
g182
sg38
(dp786
sbasg40
I00
sbag0
(g15
g2
Ntp787
Rp788
(dp789
g19
Nsg20
(lp790
g0
(g22
g2
Ntp791
Rp792
(dp793
g19
Nsg26
g102
sg38
(dp794
S'S218'
p795
g61
ssbasg40
I00
sbasbsg33
g279
sg319
I00
sg320
g0
(g321
g2
Ntp796
Rp797
(dp798
g325
g0
(g296
g2
Ntp799
Rp800
(dp801
g300
(lp802
g0
(g15
g2
Ntp803
Rp804
(dp805
g19
Nsg20
(lp806
g0
(g22
g2
Ntp807
Rp808
(dp809
g19
Nsg26
g182
sg38
(dp810
sbasg40
I00
sbag0
(g15
g2
Ntp811
Rp812
(dp813
g19
Nsg20
(lp814
g0
(g22
g2
Ntp815
Rp816
(dp817
g19
Nsg26
g102
sg38
(dp818
g795
g62
ssbasg40
I00
sbasbsg295
g776
sg319
I00
sbsg346
I00
sg35
I00
sg325
g800
sg347
I00
sg348
Nsbag0
(g290
g2
Ntp819
Rp820
(dp821
g294
g252
sg295
g0
(g296
g2
Ntp822
Rp823
(dp824
g300
(lp825
g0
(g15
g2
Ntp826
Rp827
(dp828
g19
Nsg20
(lp829
g0
(g22
g2
Ntp830
Rp831
(dp832
g19
Nsg26
g182
sg38
(dp833
sbasg40
I00
sbag0
(g15
g2
Ntp834
Rp835
(dp836
g19
Nsg20
(lp837
g0
(g22
g2
Ntp838
Rp839
(dp840
g19
Nsg26
g102
sg38
(dp841
S'S222'
p842
g61
ssbasg40
I00
sbasbsg33
g277
sg319
I00
sg320
g0
(g321
g2
Ntp843
Rp844
(dp845
g325
g0
(g296
g2
Ntp846
Rp847
(dp848
g300
(lp849
g0
(g15
g2
Ntp850
Rp851
(dp852
g19
Nsg20
(lp853
g0
(g22
g2
Ntp854
Rp855
(dp856
g19
Nsg26
g182
sg38
(dp857
sbasg40
I00
sbag0
(g15
g2
Ntp858
Rp859
(dp860
g19
Nsg20
(lp861
g0
(g22
g2
Ntp862
Rp863
(dp864
g19
Nsg26
g102
sg38
(dp865
g842
g62
ssbasg40
I00
sbasbsg295
g823
sg319
I00
sbsg346
I00
sg35
I00
sg325
g847
sg347
I00
sg348
Nsbag0
(g290
g2
Ntp866
Rp867
(dp868
g294
g255
sg295
g0
(g296
g2
Ntp869
Rp870
(dp871
g300
(lp872
g0
(g15
g2
Ntp873
Rp874
(dp875
g19
Nsg20
(lp876
g0
(g22
g2
Ntp877
Rp878
(dp879
g19
Nsg26
g182
sg38
(dp880
sbasg40
I00
sbag0
(g15
g2
Ntp881
Rp882
(dp883
g19
Nsg20
(lp884
g0
(g22
g2
Ntp885
Rp886
(dp887
g19
Nsg26
g79
sg38
(dp888
S'S222'
p889
g61
ssbasg40
I00
sbasbsg33
g274
sg319
I00
sg320
g0
(g321
g2
Ntp890
Rp891
(dp892
g325
g0
(g296
g2
Ntp893
Rp894
(dp895
g300
(lp896
g0
(g15
g2
Ntp897
Rp898
(dp899
g19
Nsg20
(lp900
g0
(g22
g2
Ntp901
Rp902
(dp903
g19
Nsg26
g182
sg38
(dp904
sbasg40
I00
sbag0
(g15
g2
Ntp905
Rp906
(dp907
g19
Nsg20
(lp908
g0
(g22
g2
Ntp909
Rp910
(dp911
g19
Nsg26
g79
sg38
(dp912
g889
g62
ssbasg40
I00
sbasbsg295
g870
sg319
I00
sbsg346
I00
sg35
I00
sg325
g894
sg347
I00
sg348
Nsbag0
(g290
g2
Ntp913
Rp914
(dp915
g294
g258
sg295
g0
(g296
g2
Ntp916
Rp917
(dp918
g300
(lp919
g0
(g15
g2
Ntp920
Rp921
(dp922
g19
Nsg20
(lp923
g0
(g22
g2
Ntp924
Rp925
(dp926
g19
Nsg26
g182
sg38
(dp927
sbasg40
I00
sbag0
(g15
g2
Ntp928
Rp929
(dp930
g19
Nsg20
(lp931
g0
(g22
g2
Ntp932
Rp933
(dp934
g19
Nsg26
g79
sg38
(dp935
S'S226'
p936
g61
ssbasg40
I00
sbasbsg33
g286
sg319
I00
sg320
g0
(g321
g2
Ntp937
Rp938
(dp939
g325
g0
(g296
g2
Ntp940
Rp941
(dp942
g300
(lp943
g0
(g15
g2
Ntp944
Rp945
(dp946
g19
Nsg20
(lp947
g0
(g22
g2
Ntp948
Rp949
(dp950
g19
Nsg26
g182
sg38
(dp951
sbasg40
I00
sbag0
(g15
g2
Ntp952
Rp953
(dp954
g19
Nsg20
(lp955
g0
(g22
g2
Ntp956
Rp957
(dp958
g19
Nsg26
g79
sg38
(dp959
g936
g62
ssbasg40
I00
sbasbsg295
g917
sg319
I00
sbsg346
I00
sg35
I00
sg325
g941
sg347
I00
sg348
Nsbag0
(g290
g2
Ntp960
Rp961
(dp962
g294
g261
sg295
g0
(g296
g2
Ntp963
Rp964
(dp965
g300
(lp966
g0
(g15
g2
Ntp967
Rp968
(dp969
g19
Nsg20
(lp970
g0
(g22
g2
Ntp971
Rp972
(dp973
g19
Nsg26
g182
sg38
(dp974
sbasg40
I00
sbag0
(g15
g2
Ntp975
Rp976
(dp977
g19
Nsg20
(lp978
g0
(g22
g2
Ntp979
Rp980
(dp981
g19
Nsg26
g56
sg38
(dp982
S'phospho'
p983
g61
ssbasg40
I00
sbasbsg33
g281
sg319
I00
sg320
g0
(g321
g2
Ntp984
Rp985
(dp986
g325
g0
(g296
g2
Ntp987
Rp988
(dp989
g300
(lp990
g0
(g15
g2
Ntp991
Rp992
(dp993
g19
Nsg20
(lp994
g0
(g22
g2
Ntp995
Rp996
(dp997
g19
Nsg26
g182
sg38
(dp998
sbasg40
I00
sbag0
(g15
g2
Ntp999
Rp1000
(dp1001
g19
Nsg20
(lp1002
g0
(g22
g2
Ntp1003
Rp1004
(dp1005
g19
Nsg26
g56
sg38
(dp1006
g983
g62
ssbasg40
I00
sbasbsg295
g964
sg319
I00
sbsg346
I00
sg35
I00
sg325
g988
sg347
I00
sg348
Nsbag0
(g290
g2
Ntp1007
Rp1008
(dp1009
g294
g264
sg295
g0
(g296
g2
Ntp1010
Rp1011
(dp1012
g300
(lp1013
g0
(g15
g2
Ntp1014
Rp1015
(dp1016
g19
Nsg20
(lp1017
g0
(g22
g2
Ntp1018
Rp1019
(dp1020
g19
Nsg26
g29
sg38
(dp1021
sbasg40
I00
sbag0
(g15
g2
Ntp1022
Rp1023
(dp1024
g19
Nsg20
(lp1025
g0
(g22
g2
Ntp1026
Rp1027
(dp1028
g19
Nsg26
g56
sg38
(dp1029
S'phospho'
p1030
g61
ssbasg40
I00
sbasbsg33
g287
sg319
I00
sg320
g0
(g321
g2
Ntp1031
Rp1032
(dp1033
g325
g0
(g296
g2
Ntp1034
Rp1035
(dp1036
g300
(lp1037
g0
(g15
g2
Ntp1038
Rp1039
(dp1040
g19
Nsg20
(lp1041
g0
(g22
g2
Ntp1042
Rp1043
(dp1044
g19
Nsg26
g29
sg38
(dp1045
sbasg40
I00
sbag0
(g15
g2
Ntp1046
Rp1047
(dp1048
g19
Nsg20
(lp1049
g0
(g22
g2
Ntp1050
Rp1051
(dp1052
g19
Nsg26
g56
sg38
(dp1053
g1030
g62
ssbasg40
I00
sbasbsg295
g1011
sg319
I00
sbsg346
I00
sg35
I00
sg325
g1035
sg347
I00
sg348
Nsbasg266
(dp1054
g273
g585
sg274
g867
sg275
g444
sg276
g397
sg277
g820
sg278
g726
sg279
g773
sg280
g679
sg281
g961
sg282
g632
sg283
g350
sg284
g292
sg285
g491
sg286
g914
sg287
g1008
sg288
g538
ssbsS'diffusivities'
p1055
(lp1056
sS'odes'
p1057
(lp1058
sg35
I01
sS'compartments'
p1059
g0
(g194
g2
Ntp1060
Rp1061
(dp1062
g198
(dp1063
sg216
(lp1064
sg266
(dp1065
sbsS'monomers'
p1066
g0
(g194
g2
Ntp1067
Rp1068
(dp1069
g198
(dp1070
g34
I0
sg63
I1
sg86
I2
sg109
I3
sg128
I4
sg147
I5
sg166
I6
sg185
I7
ssg216
(lp1071
g29
ag56
ag79
ag102
ag125
ag144
ag163
ag182
asg266
(dp1072
g34
g29
sg63
g56
sg86
g79
sg109
g102
sg128
g125
sg147
g144
sg166
g163
sg185
g182
ssbsS'base'
p1073
NsS'annotations'
p1074
(lp1075
g0
(cpysb.annotation
Annotation
p1076
g2
Ntp1077
Rp1078
(dp1079
S'predicate'
p1080
S'is'
p1081
sS'object'
p1082
S'http://identifiers.org/uniprot/[]'
p1083
sS'subject'
p1084
g29
sbag0
(g1076
g2
Ntp1085
Rp1086
(dp1087
g1080
g1081
sg1082
S'http://identifiers.org/hgnc/HGNC:None'
p1088
sg1084
g29
sbag0
(g1076
g2
Ntp1089
Rp1090
(dp1091
g1080
g1081
sg1082
S'http://identifiers.org/uniprot/[]'
p1092
sg1084
g56
sbag0
(g1076
g2
Ntp1093
Rp1094
(dp1095
g1080
g1081
sg1082
S'http://identifiers.org/hgnc/HGNC:None'
p1096
sg1084
g56
sbag0
(g1076
g2
Ntp1097
Rp1098
(dp1099
g1080
g1081
sg1082
S"http://identifiers.org/uniprot/['P36507']"
p1100
sg1084
g79
sbag0
(g1076
g2
Ntp1101
Rp1102
(dp1103
g1080
g1081
sg1082
S'http://identifiers.org/hgnc/HGNC:6842'
p1104
sg1084
g79
sbag0
(g1076
g2
Ntp1105
Rp1106
(dp1107
g1080
g1081
sg1082
S"http://identifiers.org/uniprot/['Q02750']"
p1108
sg1084
g102
sbag0
(g1076
g2
Ntp1109
Rp1110
(dp1111
g1080
g1081
sg1082
S'http://identifiers.org/hgnc/HGNC:6840'
p1112
sg1084
g102
sbag0
(g1076
g2
Ntp1113
Rp1114
(dp1115
g1080
g1081
sg1082
S'http://identifiers.org/uniprot/[]'
p1116
sg1084
g125
sbag0
(g1076
g2
Ntp1117
Rp1118
(dp1119
g1080
g1081
sg1082
S'http://identifiers.org/hgnc/HGNC:None'
p1120
sg1084
g125
sbag0
(g1076
g2
Ntp1121
Rp1122
(dp1123
g1080
g1081
sg1082
S"http://identifiers.org/uniprot/['Q5H9B2', 'Q5H9B3', 'P07557', 'P10398']"
p1124
sg1084
g144
sbag0
(g1076
g2
Ntp1125
Rp1126
(dp1127
g1080
g1081
sg1082
S'http://identifiers.org/hgnc/HGNC:646'
p1128
sg1084
g144
sbag0
(g1076
g2
Ntp1129
Rp1130
(dp1131
g1080
g1081
sg1082
S"http://identifiers.org/uniprot/['Q3MIN6', 'Q13878', 'Q9UDP8', 'Q9Y6T3', 'P15056']"
p1132
sg1084
g163
sbag0
(g1076
g2
Ntp1133
Rp1134
(dp1135
g1080
g1081
sg1082
S'http://identifiers.org/hgnc/HGNC:1097'
p1136
sg1084
g163
sbag0
(g1076
g2
Ntp1137
Rp1138
(dp1139
g1080
g1081
sg1082
S"http://identifiers.org/uniprot/['Q15278', 'P04049', 'Q9UC20']"
p1140
sg1084
g182
sbag0
(g1076
g2
Ntp1141
Rp1142
(dp1143
g1080
g1081
sg1082
S'http://identifiers.org/hgnc/HGNC:9829'
p1144
sg1084
g182
sbasS'reactions_bidirectional'
p1145
(lp1146
sS'observables'
p1147
g0
(g194
g2
Ntp1148
Rp1149
(dp1150
g198
(dp1151
sg216
(lp1152
sg266
(dp1153
sbsS'expressions'
p1154
g0
(g194
g2
Ntp1155
Rp1156
(dp1157
g198
(dp1158
sg216
(lp1159
sg266
(dp1160
sbsS'species'
p1161
(lp1162
sbsS'statements'
p1163
(lp1164
g0
(cindra.statements
Phosphorylation
p1165
g2
Ntp1166
Rp1167
(dp1168
S'mod_pos'
p1169
I218
sS'sub'
p1170
g0
(cindra.statements
Agent
p1171
g2
Ntp1172
Rp1173
(dp1174
S'mod_sites'
p1175
(lp1176
sS'mods'
p1177
(lp1178
sS'bound_to'
p1179
Nsg33
g109
sS'bound_neg'
p1180
NsS'db_refs'
p1181
(dp1182
S'UP'
p1183
(lp1184
S'Q02750'
p1185
asS'HGNC'
p1186
I6840
ssS'active'
p1187
NsbsS'citation'
p1188
(lp1189
sS'stmt'
p1190
S''
p1191
sS'evidence'
p1192
g1191
sS'enz'
p1193
g0
(g1171
g2
Ntp1194
Rp1195
(dp1196
g1175
(lp1197
sg1177
(lp1198
sg1179
Nsg33
g166
sg1180
Nsg1181
(dp1199
g1183
(lp1200
S'Q3MIN6'
p1201
aS'Q13878'
p1202
aS'Q9UDP8'
p1203
aS'Q9Y6T3'
p1204
aS'P15056'
p1205
asg1186
I1097
ssg1187
Nsbsg1074
g1191
sS'mod'
p1206
S'PhosphorylationSerine'
p1207
sbag0
(g1165
g2
Ntp1208
Rp1209
(dp1210
g1169
I222
sg1170
g1173
sg1188
g1189
sg1190
g1191
sg1192
g1191
sg1193
g1195
sg1074
g1191
sg1206
g1207
sbag0
(g1165
g2
Ntp1211
Rp1212
(dp1213
g1169
I222
sg1170
g0
(g1171
g2
Ntp1214
Rp1215
(dp1216
g1175
(lp1217
sg1177
(lp1218
sg1179
Nsg33
g86
sg1180
Nsg1181
(dp1219
g1183
(lp1220
S'P36507'
p1221
asg1186
I6842
ssg1187
Nsbsg1188
(lp1222
sg1190
g1191
sg1192
g1191
sg1193
g0
(g1171
g2
Ntp1223
Rp1224
(dp1225
g1175
(lp1226
sg1177
(lp1227
sg1179
Nsg33
g166
sg1180
Nsg1181
(dp1228
g1183
(lp1229
S'Q3MIN6'
p1230
aS'Q13878'
p1231
aS'Q9UDP8'
p1232
aS'Q9Y6T3'
p1233
aS'P15056'
p1234
asg1186
I1097
ssg1187
Nsbsg1074
g1191
sg1206
g1207
sbag0
(g1165
g2
Ntp1235
Rp1236
(dp1237
g1169
I226
sg1170
g1215
sg1188
g1222
sg1190
g1191
sg1192
g1191
sg1193
g1224
sg1074
g1191
sg1206
g1207
sbag0
(g1165
g2
Ntp1238
Rp1239
(dp1240
g1169
Nsg1170
g0
(g1171
g2
Ntp1241
Rp1242
(dp1243
g1175
(lp1244
sg1177
(lp1245
sg1179
Nsg33
S'MEK'
p1246
sg1180
Nsg1181
(dp1247
g1183
(lp1248
sg1186
Nssg1187
Nsbsg1188
(lp1249
sg1190
g1191
sg1192
g1191
sg1193
g0
(g1171
g2
Ntp1250
Rp1251
(dp1252
g1175
(lp1253
sg1177
(lp1254
sg1179
Nsg33
g166
sg1180
Nsg1181
(dp1255
g1183
(lp1256
S'Q3MIN6'
p1257
aS'Q13878'
p1258
aS'Q9UDP8'
p1259
aS'Q9Y6T3'
p1260
aS'P15056'
p1261
asg1186
I1097
ssg1187
Nsbsg1074
g1191
sg1206
S'Phosphorylation'
p1262
sbag0
(g1165
g2
Ntp1263
Rp1264
(dp1265
g1169
I218
sg1170
g0
(g1171
g2
Ntp1266
Rp1267
(dp1268
g1175
(lp1269
sg1177
(lp1270
sg1179
Nsg33
g109
sg1180
Nsg1181
(dp1271
g1183
(lp1272
S'Q02750'
p1273
asg1186
I6840
ssg1187
Nsbsg1188
(lp1274
sg1190
g1191
sg1192
g1191
sg1193
g0
(g1171
g2
Ntp1275
Rp1276
(dp1277
g1175
(lp1278
sg1177
(lp1279
sg1179
Nsg33
g185
sg1180
Nsg1181
(dp1280
g1183
(lp1281
S'Q15278'
p1282
aS'P04049'
p1283
aS'Q9UC20'
p1284
asg1186
I9829
ssg1187
Nsbsg1074
g1191
sg1206
g1207
sbag0
(g1165
g2
Ntp1285
Rp1286
(dp1287
g1169
I222
sg1170
g1267
sg1188
g1274
sg1190
g1191
sg1192
g1191
sg1193
g1276
sg1074
g1191
sg1206
g1207
sbag0
(g1165
g2
Ntp1288
Rp1289
(dp1290
g1169
I222
sg1170
g0
(g1171
g2
Ntp1291
Rp1292
(dp1293
g1175
(lp1294
sg1177
(lp1295
sg1179
Nsg33
g86
sg1180
Nsg1181
(dp1296
g1183
(lp1297
S'P36507'
p1298
asg1186
I6842
ssg1187
Nsbsg1188
(lp1299
sg1190
g1191
sg1192
g1191
sg1193
g0
(g1171
g2
Ntp1300
Rp1301
(dp1302
g1175
(lp1303
sg1177
(lp1304
sg1179
Nsg33
g185
sg1180
Nsg1181
(dp1305
g1183
(lp1306
S'Q15278'
p1307
aS'P04049'
p1308
aS'Q9UC20'
p1309
asg1186
I9829
ssg1187
Nsbsg1074
g1191
sg1206
g1207
sbag0
(g1165
g2
Ntp1310
Rp1311
(dp1312
g1169
I226
sg1170
g1292
sg1188
g1299
sg1190
g1191
sg1192
g1191
sg1193
g1301
sg1074
g1191
sg1206
g1207
sbag0
(g1165
g2
Ntp1313
Rp1314
(dp1315
g1169
Nsg1170
g0
(g1171
g2
Ntp1316
Rp1317
(dp1318
g1175
(lp1319
sg1177
(lp1320
sg1179
Nsg33
S'MEK'
p1321
sg1180
Nsg1181
(dp1322
g1183
(lp1323
sg1186
Nssg1187
Nsbsg1188
(lp1324
sg1190
g1191
sg1192
g1191
sg1193
g0
(g1171
g2
Ntp1325
Rp1326
(dp1327
g1175
(lp1328
sg1177
(lp1329
sg1179
Nsg33
g185
sg1180
Nsg1181
(dp1330
g1183
(lp1331
S'Q15278'
p1332
aS'P04049'
p1333
aS'Q9UC20'
p1334
asg1186
I9829
ssg1187
Nsbsg1074
g1191
sg1206
g1262
sbag0
(g1165
g2
Ntp1335
Rp1336
(dp1337
g1169
Nsg1170
g0
(g1171
g2
Ntp1338
Rp1339
(dp1340
g1175
(lp1341
sg1177
(lp1342
sg1179
Nsg33
S'MEK'
p1343
sg1180
Nsg1181
(dp1344
g1183
(lp1345
sg1186
Nssg1187
Nsbsg1188
(lp1346
sg1190
g1191
sg1192
g1191
sg1193
g0
(g1171
g2
Ntp1347
Rp1348
(dp1349
g1175
(lp1350
sg1177
(lp1351
sg1179
Nsg33
g34
sg1180
Nsg1181
(dp1352
g1183
(lp1353
sg1186
Nssg1187
Nsbsg1074
g1191
sg1206
g1262
sbasS'policies'
p1354
NsS'agent_set'
p1355
g0
(cindra.pysb_assembler
BaseAgentSet
p1356
g2
Ntp1357
Rp1358
(dp1359
S'agents'
p1360
(dp1361
g34
g0
(cindra.pysb_assembler
BaseAgent
p1362
g2
Ntp1363
Rp1364
(dp1365
g31
g32
sS'activating_mods'
p1366
(lp1367
sg1181
(dp1368
g1183
g1353
sg1186
Nssg33
g34
sg36
(lp1369
sbsg63
g0
(g1362
g2
Ntp1370
Rp1371
(dp1372
g31
g58
sg1366
(lp1373
sg1181
(dp1374
g1183
g1345
sg1186
Nssg33
g63
sg36
(lp1375
g59
asbsg86
g0
(g1362
g2
Ntp1376
Rp1377
(dp1378
g31
g81
sg1366
(lp1379
sg1181
(dp1380
g1183
g1297
sg1186
I6842
ssg33
g86
sg36
(lp1381
g84
ag82
asbsg109
g0
(g1362
g2
Ntp1382
Rp1383
(dp1384
g31
g104
sg1366
(lp1385
sg1181
(dp1386
g1183
g1272
sg1186
I6840
ssg33
g109
sg36
(lp1387
g105
ag107
asbsg128
g0
(g1362
g2
Ntp1388
Rp1389
(dp1390
g31
g127
sg1366
(lp1391
sg1181
(dp1392
g1183
(lp1393
sg1186
Nssg33
g128
sg36
(lp1394
sbsg147
g0
(g1362
g2
Ntp1395
Rp1396
(dp1397
g31
g146
sg1366
(lp1398
sg1181
(dp1399
g1183
(lp1400
S'Q5H9B2'
p1401
aS'Q5H9B3'
p1402
aS'P07557'
p1403
aS'P10398'
p1404
asg1186
I646
ssg33
g147
sg36
(lp1405
sbsg166
g0
(g1362
g2
Ntp1406
Rp1407
(dp1408
g31
g165
sg1366
(lp1409
sg1181
(dp1410
g1183
g1256
sg1186
I1097
ssg33
g166
sg36
(lp1411
sbsg185
g0
(g1362
g2
Ntp1412
Rp1413
(dp1414
g31
g184
sg1366
(lp1415
sg1181
(dp1416
g1183
g1331
sg1186
I9829
ssg33
g185
sg36
(lp1417
sbssbsb.