ccopy_reg
_reconstructor
p0
(cindra.pysb_assembler
PysbAssembler
p1
c__builtin__
object
p2
Ntp3
Rp4
(dp5
S'model'
p6
NsS'statements'
p7
(lp8
g0
(cindra.statements
Phosphorylation
p9
g2
Ntp10
Rp11
(dp12
S'mod_pos'
p13
I183
sS'sub'
p14
g0
(cindra.statements
Agent
p15
g2
Ntp16
Rp17
(dp18
S'mod_sites'
p19
(lp20
sS'mods'
p21
(lp22
sS'bound_to'
p23
NsS'name'
p24
VMAPK8
p25
sS'bound_neg'
p26
NsS'db_refs'
p27
(dp28
S'UP'
p29
(lp30
S'Q15709'
p31
aS'P45983'
p32
aS'Q15713'
p33
aS'Q15712'
p34
aS'Q308M2'
p35
asS'HGNC'
p36
I6881
ssS'active'
p37
NsbsS'citation'
p38
(lp39
sS'stmt'
p40
S''
p41
sS'evidence'
p42
g41
sS'enz'
p43
g0
(g15
g2
Ntp44
Rp45
(dp46
g19
(lp47
sg21
(lp48
sg23
Nsg24
S'GTP'
p49
sg26
Nsg27
(dp50
g29
(lp51
sg36
Nssg37
NsbsS'annotations'
p52
g41
sS'mod'
p53
S'PhosphorylationThreonine'
p54
sbag0
(g9
g2
Ntp55
Rp56
(dp57
g13
I185
sg14
g17
sg38
g39
sg40
g41
sg42
g41
sg43
g45
sg52
g41
sg53
S'PhosphorylationTyrosine'
p58
sbag0
(g9
g2
Ntp59
Rp60
(dp61
g13
I223
sg14
g0
(g15
g2
Ntp62
Rp63
(dp64
g19
(lp65
sg21
(lp66
sg23
Nsg24
VMAPK10
p67
sg26
Nsg27
(dp68
g29
(lp69
S'P53779'
p70
aS'Q49AP1'
p71
aS'Q15707'
p72
asg36
I6872
ssg37
Nsbsg38
(lp73
sg40
g41
sg42
g41
sg43
g0
(g15
g2
Ntp74
Rp75
(dp76
g19
(lp77
sg21
(lp78
sg23
Nsg24
S'GTP'
p79
sg26
Nsg27
(dp80
g29
(lp81
sg36
Nssg37
Nsbsg52
g41
sg53
g58
sbag0
(g9
g2
Ntp82
Rp83
(dp84
g13
I221
sg14
g63
sg38
g73
sg40
g41
sg42
g41
sg43
g75
sg52
g41
sg53
g54
sbag0
(g9
g2
Ntp85
Rp86
(dp87
g13
I185
sg14
g0
(g15
g2
Ntp88
Rp89
(dp90
g19
(lp91
sg21
(lp92
sg23
Nsg24
VMAPK9
p93
sg26
Nsg27
(dp94
g29
(lp95
S'Q15708'
p96
aS'P45984'
p97
aS'Q8N5C5'
p98
aS'Q15711'
p99
aS'Q15710'
p100
asg36
I6886
ssg37
Nsbsg38
(lp101
sg40
g41
sg42
g41
sg43
g0
(g15
g2
Ntp102
Rp103
(dp104
g19
(lp105
sg21
(lp106
sg23
Nsg24
S'GTP'
p107
sg26
Nsg27
(dp108
g29
(lp109
sg36
Nssg37
Nsbsg52
g41
sg53
g58
sbag0
(g9
g2
Ntp110
Rp111
(dp112
g13
I183
sg14
g89
sg38
g101
sg40
g41
sg42
g41
sg43
g103
sg52
g41
sg53
g54
sbag0
(g9
g2
Ntp113
Rp114
(dp115
g13
Nsg14
g0
(g15
g2
Ntp116
Rp117
(dp118
g19
(lp119
sg21
(lp120
sg23
Nsg24
S'ERK'
p121
sg26
Nsg27
(dp122
g29
(lp123
sg36
Nssg37
Nsbsg38
(lp124
sg40
g41
sg42
g41
sg43
g0
(g15
g2
Ntp125
Rp126
(dp127
g19
(lp128
sg21
(lp129
sg23
Nsg24
S'MEK'
p130
sg26
Nsg27
(dp131
g29
(lp132
sg36
Nssg37
Nsbsg52
g41
sg53
S'Phosphorylation'
p133
sbag0
(g9
g2
Ntp134
Rp135
(dp136
g13
I203
sg14
g0
(g15
g2
Ntp137
Rp138
(dp139
g19
(lp140
sg21
(lp141
sg23
Nsg24
VMAPK3
p142
sg26
Nsg27
(dp143
g29
(lp144
S'P27361'
p145
aS'Q8NHX1'
p146
asg36
I6877
ssg37
Nsbsg38
(lp147
sg40
g41
sg42
g41
sg43
g0
(g15
g2
Ntp148
Rp149
(dp150
g19
(lp151
sg21
(lp152
sg23
Nsg24
VPRKCB
p153
sg26
Nsg27
(dp154
g29
(lp155
S'Q9UEH8'
p156
aS'Q15138'
p157
aS'Q9UJ33'
p158
aS'Q9UJ30'
p159
aS'Q93060'
p160
aS'Q9UE49'
p161
aS'P05771'
p162
aS'Q9UE50'
p163
aS'P05127'
p164
aS'O43744'
p165
asg36
I9395
ssg37
Nsbsg52
g41
sg53
g58
sbag0
(g9
g2
Ntp166
Rp167
(dp168
g13
I201
sg14
g138
sg38
g147
sg40
g41
sg42
g41
sg43
g149
sg52
g41
sg53
g54
sbag0
(g9
g2
Ntp169
Rp170
(dp171
g13
I182
sg14
g0
(g15
g2
Ntp172
Rp173
(dp174
g19
(lp175
sg21
(lp176
sg23
Nsg24
VMAPK1
p177
sg26
Nsg27
(dp178
g29
(lp179
S'P28482'
p180
asg36
I6871
ssg37
Nsbsg38
(lp181
sg40
g41
sg42
g41
sg43
g0
(g15
g2
Ntp182
Rp183
(dp184
g19
(lp185
sg21
(lp186
sg23
Nsg24
g153
sg26
Nsg27
(dp187
g29
(lp188
S'Q9UEH8'
p189
aS'Q15138'
p190
aS'Q9UJ33'
p191
aS'Q9UJ30'
p192
aS'Q93060'
p193
aS'Q9UE49'
p194
aS'P05771'
p195
aS'Q9UE50'
p196
aS'P05127'
p197
aS'O43744'
p198
asg36
I9395
ssg37
Nsbsg52
g41
sg53
g54
sbag0
(g9
g2
Ntp199
Rp200
(dp201
g13
I184
sg14
g173
sg38
g181
sg40
g41
sg42
g41
sg43
g183
sg52
g41
sg53
g58
sbag0
(g9
g2
Ntp202
Rp203
(dp204
g13
I373
sg14
g0
(g15
g2
Ntp205
Rp206
(dp207
g19
(lp208
sg21
(lp209
sg23
Nsg24
VBRAF
p210
sg26
Nsg27
(dp211
g29
(lp212
S'Q3MIN6'
p213
aS'Q13878'
p214
aS'Q9UDP8'
p215
aS'Q9Y6T3'
p216
aS'P15056'
p217
asg36
I1097
ssg37
Nsbsg38
(lp218
sg40
g41
sg42
g41
sg43
g0
(g15
g2
Ntp219
Rp220
(dp221
g19
(lp222
sg21
(lp223
sg23
Nsg24
VRIT2
p224
sg26
Nsg27
(dp225
g29
(lp226
S'O15295'
p227
aS'Q99578'
p228
aS'Q8WVF6'
p229
aS'Q92964'
p230
aS'Q8TD69'
p231
asg36
I10017
ssg37
Nsbsg52
g41
sg53
g54
sbag0
(g9
g2
Ntp232
Rp233
(dp234
g13
I218
sg14
g0
(g15
g2
Ntp235
Rp236
(dp237
g19
(lp238
sg21
(lp239
sg23
Nsg24
VMAP2K1
p240
sg26
Nsg27
(dp241
g29
(lp242
S'Q02750'
p243
asg36
I6840
ssg37
Nsbsg38
(lp244
sg40
g41
sg42
g41
sg43
g0
(g15
g2
Ntp245
Rp246
(dp247
g19
(lp248
sg21
(lp249
sg23
Nsg24
g210
sg26
Nsg27
(dp250
g29
(lp251
S'Q3MIN6'
p252
aS'Q13878'
p253
aS'Q9UDP8'
p254
aS'Q9Y6T3'
p255
aS'P15056'
p256
asg36
I1097
ssg37
Nsbsg52
g41
sg53
S'PhosphorylationSerine'
p257
sbag0
(g9
g2
Ntp258
Rp259
(dp260
g13
I222
sg14
g236
sg38
g244
sg40
g41
sg42
g41
sg43
g246
sg52
g41
sg53
g257
sbag0
(g9
g2
Ntp261
Rp262
(dp263
g13
I222
sg14
g0
(g15
g2
Ntp264
Rp265
(dp266
g19
(lp267
sg21
(lp268
sg23
Nsg24
VMAP2K2
p269
sg26
Nsg27
(dp270
g29
(lp271
S'P36507'
p272
asg36
I6842
ssg37
Nsbsg38
(lp273
sg40
g41
sg42
g41
sg43
g0
(g15
g2
Ntp274
Rp275
(dp276
g19
(lp277
sg21
(lp278
sg23
Nsg24
g210
sg26
Nsg27
(dp279
g29
(lp280
S'Q3MIN6'
p281
aS'Q13878'
p282
aS'Q9UDP8'
p283
aS'Q9Y6T3'
p284
aS'P15056'
p285
asg36
I1097
ssg37
Nsbsg52
g41
sg53
g257
sbag0
(g9
g2
Ntp286
Rp287
(dp288
g13
I226
sg14
g265
sg38
g273
sg40
g41
sg42
g41
sg43
g275
sg52
g41
sg53
g257
sbag0
(g9
g2
Ntp289
Rp290
(dp291
g13
I203
sg14
g0
(g15
g2
Ntp292
Rp293
(dp294
g19
(lp295
sg21
(lp296
sg23
Nsg24
g142
sg26
Nsg27
(dp297
g29
(lp298
S'P27361'
p299
aS'Q8NHX1'
p300
asg36
I6877
ssg37
Nsbsg38
(lp301
sg40
g41
sg42
g41
sg43
g0
(g15
g2
Ntp302
Rp303
(dp304
g19
(lp305
sg21
(lp306
sg23
Nsg24
g210
sg26
Nsg27
(dp307
g29
(lp308
S'Q3MIN6'
p309
aS'Q13878'
p310
aS'Q9UDP8'
p311
aS'Q9Y6T3'
p312
aS'P15056'
p313
asg36
I1097
ssg37
Nsbsg52
g41
sg53
g58
sbag0
(g9
g2
Ntp314
Rp315
(dp316
g13
I201
sg14
g293
sg38
g301
sg40
g41
sg42
g41
sg43
g303
sg52
g41
sg53
g54
sbag0
(g9
g2
Ntp317
Rp318
(dp319
g13
I182
sg14
g0
(g15
g2
Ntp320
Rp321
(dp322
g19
(lp323
sg21
(lp324
sg23
Nsg24
g177
sg26
Nsg27
(dp325
g29
(lp326
S'P28482'
p327
asg36
I6871
ssg37
Nsbsg38
(lp328
sg40
g41
sg42
g41
sg43
g0
(g15
g2
Ntp329
Rp330
(dp331
g19
(lp332
sg21
(lp333
sg23
Nsg24
g210
sg26
Nsg27
(dp334
g29
(lp335
S'Q3MIN6'
p336
aS'Q13878'
p337
aS'Q9UDP8'
p338
aS'Q9Y6T3'
p339
aS'P15056'
p340
asg36
I1097
ssg37
Nsbsg52
g41
sg53
g54
sbag0
(g9
g2
Ntp341
Rp342
(dp343
g13
I184
sg14
g321
sg38
g328
sg40
g41
sg42
g41
sg43
g330
sg52
g41
sg53
g58
sbag0
(g9
g2
Ntp344
Rp345
(dp346
g13
Nsg14
g0
(g15
g2
Ntp347
Rp348
(dp349
g19
(lp350
sg21
(lp351
sg23
Nsg24
S'MEK'
p352
sg26
Nsg27
(dp353
g29
(lp354
sg36
Nssg37
Nsbsg38
(lp355
sg40
g41
sg42
g41
sg43
g0
(g15
g2
Ntp356
Rp357
(dp358
g19
(lp359
sg21
(lp360
sg23
Nsg24
g210
sg26
Nsg27
(dp361
g29
(lp362
S'Q3MIN6'
p363
aS'Q13878'
p364
aS'Q9UDP8'
p365
aS'Q9Y6T3'
p366
aS'P15056'
p367
asg36
I1097
ssg37
Nsbsg52
g41
sg53
g133
sbag0
(g9
g2
Ntp368
Rp369
(dp370
g13
I183
sg14
g0
(g15
g2
Ntp371
Rp372
(dp373
g19
(lp374
sg21
(lp375
sg23
Nsg24
g25
sg26
Nsg27
(dp376
g29
(lp377
S'Q15709'
p378
aS'P45983'
p379
aS'Q15713'
p380
aS'Q15712'
p381
aS'Q308M2'
p382
asg36
I6881
ssg37
Nsbsg38
(lp383
sg40
g41
sg42
g41
sg43
g0
(g15
g2
Ntp384
Rp385
(dp386
g19
(lp387
sg21
(lp388
sg23
Nsg24
S'RAL'
p389
sg26
Nsg27
(dp390
g29
(lp391
sg36
Nssg37
Nsbsg52
g41
sg53
g54
sbag0
(g9
g2
Ntp392
Rp393
(dp394
g13
I185
sg14
g372
sg38
g383
sg40
g41
sg42
g41
sg43
g385
sg52
g41
sg53
g58
sbag0
(g9
g2
Ntp395
Rp396
(dp397
g13
I223
sg14
g0
(g15
g2
Ntp398
Rp399
(dp400
g19
(lp401
sg21
(lp402
sg23
Nsg24
g67
sg26
Nsg27
(dp403
g29
(lp404
S'P53779'
p405
aS'Q49AP1'
p406
aS'Q15707'
p407
asg36
I6872
ssg37
Nsbsg38
(lp408
sg40
g41
sg42
g41
sg43
g0
(g15
g2
Ntp409
Rp410
(dp411
g19
(lp412
sg21
(lp413
sg23
Nsg24
S'RAL'
p414
sg26
Nsg27
(dp415
g29
(lp416
sg36
Nssg37
Nsbsg52
g41
sg53
g58
sbag0
(g9
g2
Ntp417
Rp418
(dp419
g13
I221
sg14
g399
sg38
g408
sg40
g41
sg42
g41
sg43
g410
sg52
g41
sg53
g54
sbag0
(g9
g2
Ntp420
Rp421
(dp422
g13
I185
sg14
g0
(g15
g2
Ntp423
Rp424
(dp425
g19
(lp426
sg21
(lp427
sg23
Nsg24
g93
sg26
Nsg27
(dp428
g29
(lp429
S'Q15708'
p430
aS'P45984'
p431
aS'Q8N5C5'
p432
aS'Q15711'
p433
aS'Q15710'
p434
asg36
I6886
ssg37
Nsbsg38
(lp435
sg40
g41
sg42
g41
sg43
g0
(g15
g2
Ntp436
Rp437
(dp438
g19
(lp439
sg21
(lp440
sg23
Nsg24
S'RAL'
p441
sg26
Nsg27
(dp442
g29
(lp443
sg36
Nssg37
Nsbsg52
g41
sg53
g58
sbag0
(g9
g2
Ntp444
Rp445
(dp446
g13
I183
sg14
g424
sg38
g435
sg40
g41
sg42
g41
sg43
g437
sg52
g41
sg53
g54
sbag0
(g9
g2
Ntp447
Rp448
(dp449
g13
I203
sg14
g0
(g15
g2
Ntp450
Rp451
(dp452
g19
(lp453
sg21
(lp454
sg23
Nsg24
g142
sg26
Nsg27
(dp455
g29
(lp456
S'P27361'
p457
aS'Q8NHX1'
p458
asg36
I6877
ssg37
Nsbsg38
(lp459
sg40
g41
sg42
g41
sg43
g0
(g15
g2
Ntp460
Rp461
(dp462
g19
(lp463
sg21
(lp464
sg23
Nsg24
S'PKC'
p465
sg26
Nsg27
(dp466
g29
(lp467
sg36
Nssg37
Nsbsg52
g41
sg53
g58
sbag0
(g9
g2
Ntp468
Rp469
(dp470
g13
I201
sg14
g451
sg38
g459
sg40
g41
sg42
g41
sg43
g461
sg52
g41
sg53
g54
sbag0
(g9
g2
Ntp471
Rp472
(dp473
g13
I182
sg14
g0
(g15
g2
Ntp474
Rp475
(dp476
g19
(lp477
sg21
(lp478
sg23
Nsg24
g177
sg26
Nsg27
(dp479
g29
(lp480
S'P28482'
p481
asg36
I6871
ssg37
Nsbsg38
(lp482
sg40
g41
sg42
g41
sg43
g0
(g15
g2
Ntp483
Rp484
(dp485
g19
(lp486
sg21
(lp487
sg23
Nsg24
S'PKC'
p488
sg26
Nsg27
(dp489
g29
(lp490
sg36
Nssg37
Nsbsg52
g41
sg53
g54
sbag0
(g9
g2
Ntp491
Rp492
(dp493
g13
I184
sg14
g475
sg38
g482
sg40
g41
sg42
g41
sg43
g484
sg52
g41
sg53
g58
sbag0
(g9
g2
Ntp494
Rp495
(dp496
g13
Nsg14
g0
(g15
g2
Ntp497
Rp498
(dp499
g19
(lp500
sg21
(lp501
sg23
Nsg24
S'ERK1_2'
p502
sg26
Nsg27
(dp503
g29
(lp504
sg36
Nssg37
Nsbsg38
(lp505
sg40
g41
sg42
g41
sg43
g0
(g15
g2
Ntp506
Rp507
(dp508
g19
(lp509
sg21
(lp510
sg23
Nsg24
S'MEK1_2'
p511
sg26
Nsg27
(dp512
g29
(lp513
sg36
Nssg37
Nsbsg52
g41
sg53
g133
sbag0
(g9
g2
Ntp514
Rp515
(dp516
g13
I218
sg14
g0
(g15
g2
Ntp517
Rp518
(dp519
g19
(lp520
sg21
(lp521
sg23
Nsg24
g240
sg26
Nsg27
(dp522
g29
(lp523
S'Q02750'
p524
asg36
I6840
ssg37
Nsbsg38
(lp525
sg40
g41
sg42
g41
sg43
g0
(g15
g2
Ntp526
Rp527
(dp528
g19
(lp529
sg21
(lp530
sg23
Nsg24
VRAF1
p531
sg26
Nsg27
(dp532
g29
(lp533
S'Q15278'
p534
aS'P04049'
p535
aS'Q9UC20'
p536
asg36
I9829
ssg37
Nsbsg52
g41
sg53
g257
sbag0
(g9
g2
Ntp537
Rp538
(dp539
g13
I222
sg14
g518
sg38
g525
sg40
g41
sg42
g41
sg43
g527
sg52
g41
sg53
g257
sbag0
(g9
g2
Ntp540
Rp541
(dp542
g13
I222
sg14
g0
(g15
g2
Ntp543
Rp544
(dp545
g19
(lp546
sg21
(lp547
sg23
Nsg24
g269
sg26
Nsg27
(dp548
g29
(lp549
S'P36507'
p550
asg36
I6842
ssg37
Nsbsg38
(lp551
sg40
g41
sg42
g41
sg43
g0
(g15
g2
Ntp552
Rp553
(dp554
g19
(lp555
sg21
(lp556
sg23
Nsg24
g531
sg26
Nsg27
(dp557
g29
(lp558
S'Q15278'
p559
aS'P04049'
p560
aS'Q9UC20'
p561
asg36
I9829
ssg37
Nsbsg52
g41
sg53
g257
sbag0
(g9
g2
Ntp562
Rp563
(dp564
g13
I226
sg14
g544
sg38
g551
sg40
g41
sg42
g41
sg43
g553
sg52
g41
sg53
g257
sbag0
(g9
g2
Ntp565
Rp566
(dp567
g13
I203
sg14
g0
(g15
g2
Ntp568
Rp569
(dp570
g19
(lp571
sg21
(lp572
sg23
Nsg24
g142
sg26
Nsg27
(dp573
g29
(lp574
S'P27361'
p575
aS'Q8NHX1'
p576
asg36
I6877
ssg37
Nsbsg38
(lp577
sg40
g41
sg42
g41
sg43
g0
(g15
g2
Ntp578
Rp579
(dp580
g19
(lp581
sg21
(lp582
sg23
Nsg24
g531
sg26
Nsg27
(dp583
g29
(lp584
S'Q15278'
p585
aS'P04049'
p586
aS'Q9UC20'
p587
asg36
I9829
ssg37
Nsbsg52
g41
sg53
g58
sbag0
(g9
g2
Ntp588
Rp589
(dp590
g13
I201
sg14
g569
sg38
g577
sg40
g41
sg42
g41
sg43
g579
sg52
g41
sg53
g54
sbag0
(g9
g2
Ntp591
Rp592
(dp593
g13
I182
sg14
g0
(g15
g2
Ntp594
Rp595
(dp596
g19
(lp597
sg21
(lp598
sg23
Nsg24
g177
sg26
Nsg27
(dp599
g29
(lp600
S'P28482'
p601
asg36
I6871
ssg37
Nsbsg38
(lp602
sg40
g41
sg42
g41
sg43
g0
(g15
g2
Ntp603
Rp604
(dp605
g19
(lp606
sg21
(lp607
sg23
Nsg24
g531
sg26
Nsg27
(dp608
g29
(lp609
S'Q15278'
p610
aS'P04049'
p611
aS'Q9UC20'
p612
asg36
I9829
ssg37
Nsbsg52
g41
sg53
g54
sbag0
(g9
g2
Ntp613
Rp614
(dp615
g13
I184
sg14
g595
sg38
g602
sg40
g41
sg42
g41
sg43
g604
sg52
g41
sg53
g58
sbag0
(g9
g2
Ntp616
Rp617
(dp618
g13
Nsg14
g0
(g15
g2
Ntp619
Rp620
(dp621
g19
(lp622
sg21
(lp623
sg23
Nsg24
S'MEK1_2'
p624
sg26
Nsg27
(dp625
g29
(lp626
sg36
Nssg37
Nsbsg38
(lp627
sg40
g41
sg42
g41
sg43
g0
(g15
g2
Ntp628
Rp629
(dp630
g19
(lp631
sg21
(lp632
sg23
Nsg24
g531
sg26
Nsg27
(dp633
g29
(lp634
S'Q15278'
p635
aS'P04049'
p636
aS'Q9UC20'
p637
asg36
I9829
ssg37
Nsbsg52
g41
sg53
g133
sbag0
(g9
g2
Ntp638
Rp639
(dp640
g13
Nsg14
g0
(g15
g2
Ntp641
Rp642
(dp643
g19
(lp644
sg21
(lp645
sg23
Nsg24
S'MEK'
p646
sg26
Nsg27
(dp647
g29
(lp648
sg36
Nssg37
Nsbsg38
(lp649
sg40
g41
sg42
g41
sg43
g0
(g15
g2
Ntp650
Rp651
(dp652
g19
(lp653
sg21
(lp654
sg23
Nsg24
g531
sg26
Nsg27
(dp655
g29
(lp656
S'Q15278'
p657
aS'P04049'
p658
aS'Q9UC20'
p659
asg36
I9829
ssg37
Nsbsg52
g41
sg53
g133
sbag0
(g9
g2
Ntp660
Rp661
(dp662
g13
I298
sg14
g0
(g15
g2
Ntp663
Rp664
(dp665
g19
(lp666
sg21
(lp667
sg23
Nsg24
g240
sg26
Nsg27
(dp668
g29
(lp669
S'Q02750'
p670
asg36
I6840
ssg37
Nsbsg38
(lp671
sg40
g41
sg42
g41
sg43
g0
(g15
g2
Ntp672
Rp673
(dp674
g19
(lp675
sg21
(lp676
sg23
Nsg24
g531
sg26
Nsg27
(dp677
g29
(lp678
S'Q15278'
p679
aS'P04049'
p680
aS'Q9UC20'
p681
asg36
I9829
ssg37
Nsbsg52
g41
sg53
g257
sbag0
(g9
g2
Ntp682
Rp683
(dp684
g13
I373
sg14
g0
(g15
g2
Ntp685
Rp686
(dp687
g19
(lp688
sg21
(lp689
sg23
Nsg24
g210
sg26
Nsg27
(dp690
g29
(lp691
S'Q3MIN6'
p692
aS'Q13878'
p693
aS'Q9UDP8'
p694
aS'Q9Y6T3'
p695
aS'P15056'
p696
asg36
I1097
ssg37
Nsbsg38
(lp697
sg40
g41
sg42
g41
sg43
g0
(g15
g2
Ntp698
Rp699
(dp700
g19
(lp701
sg21
(lp702
sg23
Nsg24
VRAP1A
p703
sg26
Nsg27
(dp704
g29
(lp705
S'P10113'
p706
aS'P62834'
p707
asg36
I9855
ssg37
Nsbsg52
g41
sg53
g54
sbag0
(g9
g2
Ntp708
Rp709
(dp710
g13
I203
sg14
g0
(g15
g2
Ntp711
Rp712
(dp713
g19
(lp714
sg21
(lp715
sg23
Nsg24
g142
sg26
Nsg27
(dp716
g29
(lp717
S'P27361'
p718
aS'Q8NHX1'
p719
asg36
I6877
ssg37
Nsbsg38
(lp720
sg40
g41
sg42
g41
sg43
g0
(g15
g2
Ntp721
Rp722
(dp723
g19
(lp724
sg21
(lp725
sg23
Nsg24
VYWHAE
p726
sg26
Nsg27
(dp727
g29
(lp728
S'Q53XZ5'
p729
aS'Q4VJB6'
p730
aS'P62258'
p731
aS'P42655'
p732
aS'Q7M4R4'
p733
aS'P29360'
p734
aS'Q63631'
p735
asg36
I12851
ssg37
Nsbsg52
g41
sg53
g58
sbag0
(g9
g2
Ntp736
Rp737
(dp738
g13
I201
sg14
g712
sg38
g720
sg40
g41
sg42
g41
sg43
g722
sg52
g41
sg53
g54
sbag0
(g9
g2
Ntp739
Rp740
(dp741
g13
I182
sg14
g0
(g15
g2
Ntp742
Rp743
(dp744
g19
(lp745
sg21
(lp746
sg23
Nsg24
g177
sg26
Nsg27
(dp747
g29
(lp748
S'P28482'
p749
asg36
I6871
ssg37
Nsbsg38
(lp750
sg40
g41
sg42
g41
sg43
g0
(g15
g2
Ntp751
Rp752
(dp753
g19
(lp754
sg21
(lp755
sg23
Nsg24
g726
sg26
Nsg27
(dp756
g29
(lp757
S'Q53XZ5'
p758
aS'Q4VJB6'
p759
aS'P62258'
p760
aS'P42655'
p761
aS'Q7M4R4'
p762
aS'P29360'
p763
aS'Q63631'
p764
asg36
I12851
ssg37
Nsbsg52
g41
sg53
g54
sbag0
(g9
g2
Ntp765
Rp766
(dp767
g13
I184
sg14
g743
sg38
g750
sg40
g41
sg42
g41
sg43
g752
sg52
g41
sg53
g58
sbag0
(g9
g2
Ntp768
Rp769
(dp770
g13
I203
sg14
g0
(g15
g2
Ntp771
Rp772
(dp773
g19
(lp774
sg21
(lp775
sg23
Nsg24
g142
sg26
Nsg27
(dp776
g29
(lp777
S'P27361'
p778
aS'Q8NHX1'
p779
asg36
I6877
ssg37
Nsbsg38
(lp780
sg40
g41
sg42
g41
sg43
g0
(g15
g2
Ntp781
Rp782
(dp783
g19
(lp784
sg21
(lp785
sg23
Nsg24
VYWHAH
p786
sg26
Nsg27
(dp787
g29
(lp788
S'Q04917'
p789
asg36
I12853
ssg37
Nsbsg52
g41
sg53
g58
sbag0
(g9
g2
Ntp790
Rp791
(dp792
g13
I201
sg14
g772
sg38
g780
sg40
g41
sg42
g41
sg43
g782
sg52
g41
sg53
g54
sbag0
(g9
g2
Ntp793
Rp794
(dp795
g13
I182
sg14
g0
(g15
g2
Ntp796
Rp797
(dp798
g19
(lp799
sg21
(lp800
sg23
Nsg24
g177
sg26
Nsg27
(dp801
g29
(lp802
S'P28482'
p803
asg36
I6871
ssg37
Nsbsg38
(lp804
sg40
g41
sg42
g41
sg43
g0
(g15
g2
Ntp805
Rp806
(dp807
g19
(lp808
sg21
(lp809
sg23
Nsg24
g786
sg26
Nsg27
(dp810
g29
(lp811
S'Q04917'
p812
asg36
I12853
ssg37
Nsbsg52
g41
sg53
g54
sbag0
(g9
g2
Ntp813
Rp814
(dp815
g13
I184
sg14
g797
sg38
g804
sg40
g41
sg42
g41
sg43
g806
sg52
g41
sg53
g58
sbag0
(g9
g2
Ntp816
Rp817
(dp818
g13
I203
sg14
g0
(g15
g2
Ntp819
Rp820
(dp821
g19
(lp822
sg21
(lp823
sg23
Nsg24
g142
sg26
Nsg27
(dp824
g29
(lp825
S'P27361'
p826
aS'Q8NHX1'
p827
asg36
I6877
ssg37
Nsbsg38
(lp828
sg40
g41
sg42
g41
sg43
g0
(g15
g2
Ntp829
Rp830
(dp831
g19
(lp832
sg21
(lp833
sg23
Nsg24
VPRKCQ
p834
sg26
Nsg27
(dp835
g29
(lp836
S'Q3MJF1'
p837
aS'Q9H508'
p838
aS'Q14DH6'
p839
aS'Q9H549'
p840
aS'Q64FY5'
p841
aS'Q04759'
p842
asg36
I9410
ssg37
Nsbsg52
g41
sg53
g58
sbag0
(g9
g2
Ntp843
Rp844
(dp845
g13
I201
sg14
g820
sg38
g828
sg40
g41
sg42
g41
sg43
g830
sg52
g41
sg53
g54
sbag0
(g9
g2
Ntp846
Rp847
(dp848
g13
I182
sg14
g0
(g15
g2
Ntp849
Rp850
(dp851
g19
(lp852
sg21
(lp853
sg23
Nsg24
g177
sg26
Nsg27
(dp854
g29
(lp855
S'P28482'
p856
asg36
I6871
ssg37
Nsbsg38
(lp857
sg40
g41
sg42
g41
sg43
g0
(g15
g2
Ntp858
Rp859
(dp860
g19
(lp861
sg21
(lp862
sg23
Nsg24
g834
sg26
Nsg27
(dp863
g29
(lp864
S'Q3MJF1'
p865
aS'Q9H508'
p866
aS'Q14DH6'
p867
aS'Q9H549'
p868
aS'Q64FY5'
p869
aS'Q04759'
p870
asg36
I9410
ssg37
Nsbsg52
g41
sg53
g54
sbag0
(g9
g2
Ntp871
Rp872
(dp873
g13
I184
sg14
g850
sg38
g857
sg40
g41
sg42
g41
sg43
g859
sg52
g41
sg53
g58
sbag0
(g9
g2
Ntp874
Rp875
(dp876
g13
I203
sg14
g0
(g15
g2
Ntp877
Rp878
(dp879
g19
(lp880
sg21
(lp881
sg23
Nsg24
g142
sg26
Nsg27
(dp882
g29
(lp883
S'P27361'
p884
aS'Q8NHX1'
p885
asg36
I6877
ssg37
Nsbsg38
(lp886
sg40
g41
sg42
g41
sg43
g0
(g15
g2
Ntp887
Rp888
(dp889
g19
(lp890
sg21
(lp891
sg23
Nsg24
VYWHAZ
p892
sg26
Nsg27
(dp893
g29
(lp894
S'P29312'
p895
aS'Q6GPI2'
p896
aS'Q6P3U9'
p897
aS'Q86V33'
p898
aS'P29213'
p899
aS'P63104'
p900
aS'Q6NUR9'
p901
aS'Q32P43'
p902
aS'Q6IN74'
p903
aS'Q5XJ08'
p904
asg36
I12855
ssg37
Nsbsg52
g41
sg53
g58
sbag0
(g9
g2
Ntp905
Rp906
(dp907
g13
I201
sg14
g878
sg38
g886
sg40
g41
sg42
g41
sg43
g888
sg52
g41
sg53
g54
sbag0
(g9
g2
Ntp908
Rp909
(dp910
g13
I182
sg14
g0
(g15
g2
Ntp911
Rp912
(dp913
g19
(lp914
sg21
(lp915
sg23
Nsg24
g177
sg26
Nsg27
(dp916
g29
(lp917
S'P28482'
p918
asg36
I6871
ssg37
Nsbsg38
(lp919
sg40
g41
sg42
g41
sg43
g0
(g15
g2
Ntp920
Rp921
(dp922
g19
(lp923
sg21
(lp924
sg23
Nsg24
g892
sg26
Nsg27
(dp925
g29
(lp926
S'P29312'
p927
aS'Q6GPI2'
p928
aS'Q6P3U9'
p929
aS'Q86V33'
p930
aS'P29213'
p931
aS'P63104'
p932
aS'Q6NUR9'
p933
aS'Q32P43'
p934
aS'Q6IN74'
p935
aS'Q5XJ08'
p936
asg36
I12855
ssg37
Nsbsg52
g41
sg53
g54
sbag0
(g9
g2
Ntp937
Rp938
(dp939
g13
I184
sg14
g912
sg38
g919
sg40
g41
sg42
g41
sg43
g921
sg52
g41
sg53
g58
sbag0
(g9
g2
Ntp940
Rp941
(dp942
g13
I203
sg14
g0
(g15
g2
Ntp943
Rp944
(dp945
g19
(lp946
sg21
(lp947
sg23
Nsg24
g142
sg26
Nsg27
(dp948
g29
(lp949
S'P27361'
p950
aS'Q8NHX1'
p951
asg36
I6877
ssg37
Nsbsg38
(lp952
sg40
g41
sg42
g41
sg43
g0
(g15
g2
Ntp953
Rp954
(dp955
g19
(lp956
sg21
(lp957
sg23
Nsg24
VARF6
p958
sg26
Nsg27
(dp959
g29
(lp960
S'P26438'
p961
aS'Q6FGZ2'
p962
aS'P62330'
p963
asg36
I659
ssg37
Nsbsg52
g41
sg53
g58
sbag0
(g9
g2
Ntp964
Rp965
(dp966
g13
I201
sg14
g944
sg38
g952
sg40
g41
sg42
g41
sg43
g954
sg52
g41
sg53
g54
sbag0
(g9
g2
Ntp967
Rp968
(dp969
g13
I182
sg14
g0
(g15
g2
Ntp970
Rp971
(dp972
g19
(lp973
sg21
(lp974
sg23
Nsg24
g177
sg26
Nsg27
(dp975
g29
(lp976
S'P28482'
p977
asg36
I6871
ssg37
Nsbsg38
(lp978
sg40
g41
sg42
g41
sg43
g0
(g15
g2
Ntp979
Rp980
(dp981
g19
(lp982
sg21
(lp983
sg23
Nsg24
g958
sg26
Nsg27
(dp984
g29
(lp985
S'P26438'
p986
aS'Q6FGZ2'
p987
aS'P62330'
p988
asg36
I659
ssg37
Nsbsg52
g41
sg53
g54
sbag0
(g9
g2
Ntp989
Rp990
(dp991
g13
I184
sg14
g971
sg38
g978
sg40
g41
sg42
g41
sg43
g980
sg52
g41
sg53
g58
sbag0
(g9
g2
Ntp992
Rp993
(dp994
g13
I373
sg14
g0
(g15
g2
Ntp995
Rp996
(dp997
g19
(lp998
sg21
(lp999
sg23
Nsg24
g210
sg26
Nsg27
(dp1000
g29
(lp1001
S'Q3MIN6'
p1002
aS'Q13878'
p1003
aS'Q9UDP8'
p1004
aS'Q9Y6T3'
p1005
aS'P15056'
p1006
asg36
I1097
ssg37
Nsbsg38
(lp1007
sg40
g41
sg42
g41
sg43
g0
(g15
g2
Ntp1008
Rp1009
(dp1010
g19
(lp1011
sg21
(lp1012
sg23
Nsg24
S'RAP1'
p1013
sg26
Nsg27
(dp1014
g29
(lp1015
sg36
Nssg37
Nsbsg52
g41
sg53
g54
sbag0
(g9
g2
Ntp1016
Rp1017
(dp1018
g13
I-2147483648
sg14
g0
(g15
g2
Ntp1019
Rp1020
(dp1021
g19
(lp1022
sg21
(lp1023
sg23
Nsg24
S'ERK'
p1024
sg26
Nsg27
(dp1025
g29
(lp1026
sg36
Nssg37
Nsbsg38
(lp1027
sg40
g41
sg42
g41
sg43
g0
(g15
g2
Ntp1028
Rp1029
(dp1030
g19
(lp1031
sg21
(lp1032
sg23
Nsg24
g269
sg26
Nsg27
(dp1033
g29
(lp1034
S'P36507'
p1035
asg36
I6842
ssg37
Nsbsg52
g41
sg53
g133
sbag0
(g9
g2
Ntp1036
Rp1037
(dp1038
g13
Nsg14
g0
(g15
g2
Ntp1039
Rp1040
(dp1041
g19
(lp1042
sg21
(lp1043
sg23
Nsg24
S'ERK1_2'
p1044
sg26
Nsg27
(dp1045
g29
(lp1046
sg36
Nssg37
Nsbsg38
(lp1047
sg40
g41
sg42
g41
sg43
g0
(g15
g2
Ntp1048
Rp1049
(dp1050
g19
(lp1051
sg21
(lp1052
sg23
Nsg24
g269
sg26
Nsg27
(dp1053
g29
(lp1054
S'P36507'
p1055
asg36
I6842
ssg37
Nsbsg52
g41
sg53
g133
sbag0
(g9
g2
Ntp1056
Rp1057
(dp1058
g13
Nsg14
g0
(g15
g2
Ntp1059
Rp1060
(dp1061
g19
(lp1062
sg21
(lp1063
sg23
Nsg24
S'ERK'
p1064
sg26
Nsg27
(dp1065
g29
(lp1066
sg36
Nssg37
Nsbsg38
(lp1067
sg40
g41
sg42
g41
sg43
g0
(g15
g2
Ntp1068
Rp1069
(dp1070
g19
(lp1071
sg21
(lp1072
sg23
Nsg24
g269
sg26
Nsg27
(dp1073
g29
(lp1074
S'P36507'
p1075
asg36
I6842
ssg37
Nsbsg52
g41
sg53
g133
sbag0
(g9
g2
Ntp1076
Rp1077
(dp1078
g13
I203
sg14
g0
(g15
g2
Ntp1079
Rp1080
(dp1081
g19
(lp1082
sg21
(lp1083
sg23
Nsg24
g142
sg26
Nsg27
(dp1084
g29
(lp1085
S'P27361'
p1086
aS'Q8NHX1'
p1087
asg36
I6877
ssg37
Nsbsg38
(lp1088
sg40
g41
sg42
g41
sg43
g0
(g15
g2
Ntp1089
Rp1090
(dp1091
g19
(lp1092
sg21
(lp1093
sg23
Nsg24
g269
sg26
Nsg27
(dp1094
g29
(lp1095
S'P36507'
p1096
asg36
I6842
ssg37
Nsbsg52
g41
sg53
g58
sbag0
(g9
g2
Ntp1097
Rp1098
(dp1099
g13
I201
sg14
g1080
sg38
g1088
sg40
g41
sg42
g41
sg43
g1090
sg52
g41
sg53
g54
sbag0
(g9
g2
Ntp1100
Rp1101
(dp1102
g13
I182
sg14
g0
(g15
g2
Ntp1103
Rp1104
(dp1105
g19
(lp1106
sg21
(lp1107
sg23
Nsg24
g177
sg26
Nsg27
(dp1108
g29
(lp1109
S'P28482'
p1110
asg36
I6871
ssg37
Nsbsg38
(lp1111
sg40
g41
sg42
g41
sg43
g0
(g15
g2
Ntp1112
Rp1113
(dp1114
g19
(lp1115
sg21
(lp1116
sg23
Nsg24
g269
sg26
Nsg27
(dp1117
g29
(lp1118
S'P36507'
p1119
asg36
I6842
ssg37
Nsbsg52
g41
sg53
g54
sbag0
(g9
g2
Ntp1120
Rp1121
(dp1122
g13
I184
sg14
g1104
sg38
g1111
sg40
g41
sg42
g41
sg43
g1113
sg52
g41
sg53
g58
sbag0
(g9
g2
Ntp1123
Rp1124
(dp1125
g13
I185
sg14
g0
(g15
g2
Ntp1126
Rp1127
(dp1128
g19
(lp1129
sg21
(lp1130
sg23
Nsg24
g177
sg26
Nsg27
(dp1131
g29
(lp1132
S'P28482'
p1133
asg36
I6871
ssg37
Nsbsg38
(lp1134
sg40
g41
sg42
g41
sg43
g0
(g15
g2
Ntp1135
Rp1136
(dp1137
g19
(lp1138
sg21
(lp1139
sg23
Nsg24
g269
sg26
Nsg27
(dp1140
g29
(lp1141
S'P36507'
p1142
asg36
I6842
ssg37
Nsbsg52
g41
sg53
g54
sbag0
(g9
g2
Ntp1143
Rp1144
(dp1145
g13
I187
sg14
g1127
sg38
g1134
sg40
g41
sg42
g41
sg43
g1136
sg52
g41
sg53
g58
sbag0
(g9
g2
Ntp1146
Rp1147
(dp1148
g13
I204
sg14
g0
(g15
g2
Ntp1149
Rp1150
(dp1151
g19
(lp1152
sg21
(lp1153
sg23
Nsg24
g142
sg26
Nsg27
(dp1154
g29
(lp1155
S'P27361'
p1156
aS'Q8NHX1'
p1157
asg36
I6877
ssg37
Nsbsg38
(lp1158
sg40
g41
sg42
g41
sg43
g0
(g15
g2
Ntp1159
Rp1160
(dp1161
g19
(lp1162
sg21
(lp1163
sg23
Nsg24
g269
sg26
Nsg27
(dp1164
g29
(lp1165
S'P36507'
p1166
asg36
I6842
ssg37
Nsbsg52
g41
sg53
g58
sbag0
(g9
g2
Ntp1167
Rp1168
(dp1169
g13
I202
sg14
g1150
sg38
g1158
sg40
g41
sg42
g41
sg43
g1160
sg52
g41
sg53
g54
sbag0
(g9
g2
Ntp1170
Rp1171
(dp1172
g13
I203
sg14
g0
(g15
g2
Ntp1173
Rp1174
(dp1175
g19
(lp1176
sg21
(lp1177
sg23
Nsg24
g142
sg26
Nsg27
(dp1178
g29
(lp1179
S'P27361'
p1180
aS'Q8NHX1'
p1181
asg36
I6877
ssg37
Nsbsg38
(lp1182
sg40
g41
sg42
g41
sg43
g0
(g15
g2
Ntp1183
Rp1184
(dp1185
g19
(lp1186
sg21
(lp1187
sg23
Nsg24
VKSR1
p1188
sg26
Nsg27
(dp1189
g29
(lp1190
S'Q13476'
p1191
aS'Q8IVT5'
p1192
asg36
I6465
ssg37
Nsbsg52
g41
sg53
g58
sbag0
(g9
g2
Ntp1193
Rp1194
(dp1195
g13
I201
sg14
g1174
sg38
g1182
sg40
g41
sg42
g41
sg43
g1184
sg52
g41
sg53
g54
sbag0
(g9
g2
Ntp1196
Rp1197
(dp1198
g13
I182
sg14
g0
(g15
g2
Ntp1199
Rp1200
(dp1201
g19
(lp1202
sg21
(lp1203
sg23
Nsg24
g177
sg26
Nsg27
(dp1204
g29
(lp1205
S'P28482'
p1206
asg36
I6871
ssg37
Nsbsg38
(lp1207
sg40
g41
sg42
g41
sg43
g0
(g15
g2
Ntp1208
Rp1209
(dp1210
g19
(lp1211
sg21
(lp1212
sg23
Nsg24
g1188
sg26
Nsg27
(dp1213
g29
(lp1214
S'Q13476'
p1215
aS'Q8IVT5'
p1216
asg36
I6465
ssg37
Nsbsg52
g41
sg53
g54
sbag0
(g9
g2
Ntp1217
Rp1218
(dp1219
g13
I184
sg14
g1200
sg38
g1207
sg40
g41
sg42
g41
sg43
g1209
sg52
g41
sg53
g58
sbag0
(g9
g2
Ntp1220
Rp1221
(dp1222
g13
I203
sg14
g0
(g15
g2
Ntp1223
Rp1224
(dp1225
g19
(lp1226
sg21
(lp1227
sg23
Nsg24
g142
sg26
Nsg27
(dp1228
g29
(lp1229
S'P27361'
p1230
aS'Q8NHX1'
p1231
asg36
I6877
ssg37
Nsbsg38
(lp1232
sg40
g41
sg42
g41
sg43
g0
(g15
g2
Ntp1233
Rp1234
(dp1235
g19
(lp1236
sg21
(lp1237
sg23
Nsg24
S'MEK1_2'
p1238
sg26
Nsg27
(dp1239
g29
(lp1240
sg36
Nssg37
Nsbsg52
g41
sg53
g58
sbag0
(g9
g2
Ntp1241
Rp1242
(dp1243
g13
I201
sg14
g1224
sg38
g1232
sg40
g41
sg42
g41
sg43
g1234
sg52
g41
sg53
g54
sbag0
(g9
g2
Ntp1244
Rp1245
(dp1246
g13
I182
sg14
g0
(g15
g2
Ntp1247
Rp1248
(dp1249
g19
(lp1250
sg21
(lp1251
sg23
Nsg24
g177
sg26
Nsg27
(dp1252
g29
(lp1253
S'P28482'
p1254
asg36
I6871
ssg37
Nsbsg38
(lp1255
sg40
g41
sg42
g41
sg43
g0
(g15
g2
Ntp1256
Rp1257
(dp1258
g19
(lp1259
sg21
(lp1260
sg23
Nsg24
S'MEK1_2'
p1261
sg26
Nsg27
(dp1262
g29
(lp1263
sg36
Nssg37
Nsbsg52
g41
sg53
g54
sbag0
(g9
g2
Ntp1264
Rp1265
(dp1266
g13
I184
sg14
g1248
sg38
g1255
sg40
g41
sg42
g41
sg43
g1257
sg52
g41
sg53
g58
sbag0
(g9
g2
Ntp1267
Rp1268
(dp1269
g13
I1400
sg14
g0
(g15
g2
Ntp1270
Rp1271
(dp1272
g19
(lp1273
sg21
(lp1274
sg23
Nsg24
VMAP3K1
p1275
sg26
Nsg27
(dp1276
g29
(lp1277
S'Q13233'
p1278
asg36
I6848
ssg37
Nsbsg38
(lp1279
sg40
g41
sg42
g41
sg43
g0
(g15
g2
Ntp1280
Rp1281
(dp1282
g19
(lp1283
sg21
(lp1284
sg23
Nsg24
VPAK2
p1285
sg26
Nsg27
(dp1286
g29
(lp1287
S'Q13154'
p1288
aS'Q13177'
p1289
aS'Q6ISC3'
p1290
asg36
I8591
ssg37
Nsbsg52
g41
sg53
g54
sbag0
(g9
g2
Ntp1291
Rp1292
(dp1293
g13
I1412
sg14
g1271
sg38
g1279
sg40
g41
sg42
g41
sg43
g1281
sg52
g41
sg53
g54
sbag0
(g9
g2
Ntp1294
Rp1295
(dp1296
g13
I507
sg14
g0
(g15
g2
Ntp1297
Rp1298
(dp1299
g19
(lp1300
sg21
(lp1301
sg23
Nsg24
VPRKCD
p1302
sg26
Nsg27
(dp1303
g29
(lp1304
S'Q05655'
p1305
aS'Q15144'
p1306
aS'Q86XJ6'
p1307
asg36
I9399
ssg37
Nsbsg38
(lp1308
sg40
g41
sg42
g41
sg43
g0
(g15
g2
Ntp1309
Rp1310
(dp1311
g19
(lp1312
sg21
(lp1313
sg23
Nsg24
VPIK3CA
p1314
sg26
Nsg27
(dp1315
g29
(lp1316
S'Q14CW1'
p1317
aS'P42336'
p1318
aS'Q99762'
p1319
asg36
I8975
ssg37
Nsbsg52
g41
sg53
g54
sbag0
(g9
g2
Ntp1320
Rp1321
(dp1322
g13
Nsg14
g0
(g15
g2
Ntp1323
Rp1324
(dp1325
g19
(lp1326
sg21
(lp1327
sg23
Nsg24
S'MEK1_2'
p1328
sg26
Nsg27
(dp1329
g29
(lp1330
sg36
Nssg37
Nsbsg38
(lp1331
sg40
g41
sg42
g41
sg43
g0
(g15
g2
Ntp1332
Rp1333
(dp1334
g19
(lp1335
sg21
(lp1336
sg23
Nsg24
S'RAF1'
p1337
sg26
Nsg27
(dp1338
g29
(lp1339
sg36
Nssg37
Nsbsg52
g41
sg53
g133
sbag0
(g9
g2
Ntp1340
Rp1341
(dp1342
g13
I183
sg14
g0
(g15
g2
Ntp1343
Rp1344
(dp1345
g19
(lp1346
sg21
(lp1347
sg23
Nsg24
g25
sg26
Nsg27
(dp1348
g29
(lp1349
S'Q15709'
p1350
aS'P45983'
p1351
aS'Q15713'
p1352
aS'Q15712'
p1353
aS'Q308M2'
p1354
asg36
I6881
ssg37
Nsbsg38
(lp1355
sg40
g41
sg42
g41
sg43
g0
(g15
g2
Ntp1356
Rp1357
(dp1358
g19
(lp1359
sg21
(lp1360
sg23
Nsg24
VRALA
p1361
sg26
Nsg27
(dp1362
g29
(lp1363
S'P11233'
p1364
asg36
I9839
ssg37
Nsbsg52
g41
sg53
g54
sbag0
(g9
g2
Ntp1365
Rp1366
(dp1367
g13
I185
sg14
g1344
sg38
g1355
sg40
g41
sg42
g41
sg43
g1357
sg52
g41
sg53
g58
sbag0
(g9
g2
Ntp1368
Rp1369
(dp1370
g13
I223
sg14
g0
(g15
g2
Ntp1371
Rp1372
(dp1373
g19
(lp1374
sg21
(lp1375
sg23
Nsg24
g67
sg26
Nsg27
(dp1376
g29
(lp1377
S'P53779'
p1378
aS'Q49AP1'
p1379
aS'Q15707'
p1380
asg36
I6872
ssg37
Nsbsg38
(lp1381
sg40
g41
sg42
g41
sg43
g0
(g15
g2
Ntp1382
Rp1383
(dp1384
g19
(lp1385
sg21
(lp1386
sg23
Nsg24
g1361
sg26
Nsg27
(dp1387
g29
(lp1388
S'P11233'
p1389
asg36
I9839
ssg37
Nsbsg52
g41
sg53
g58
sbag0
(g9
g2
Ntp1390
Rp1391
(dp1392
g13
I221
sg14
g1372
sg38
g1381
sg40
g41
sg42
g41
sg43
g1383
sg52
g41
sg53
g54
sbag0
(g9
g2
Ntp1393
Rp1394
(dp1395
g13
I185
sg14
g0
(g15
g2
Ntp1396
Rp1397
(dp1398
g19
(lp1399
sg21
(lp1400
sg23
Nsg24
g93
sg26
Nsg27
(dp1401
g29
(lp1402
S'Q15708'
p1403
aS'P45984'
p1404
aS'Q8N5C5'
p1405
aS'Q15711'
p1406
aS'Q15710'
p1407
asg36
I6886
ssg37
Nsbsg38
(lp1408
sg40
g41
sg42
g41
sg43
g0
(g15
g2
Ntp1409
Rp1410
(dp1411
g19
(lp1412
sg21
(lp1413
sg23
Nsg24
g1361
sg26
Nsg27
(dp1414
g29
(lp1415
S'P11233'
p1416
asg36
I9839
ssg37
Nsbsg52
g41
sg53
g58
sbag0
(g9
g2
Ntp1417
Rp1418
(dp1419
g13
I183
sg14
g1397
sg38
g1408
sg40
g41
sg42
g41
sg43
g1410
sg52
g41
sg53
g54
sbag0
(g9
g2
Ntp1420
Rp1421
(dp1422
g13
I183
sg14
g0
(g15
g2
Ntp1423
Rp1424
(dp1425
g19
(lp1426
sg21
(lp1427
sg23
Nsg24
g25
sg26
Nsg27
(dp1428
g29
(lp1429
S'Q15709'
p1430
aS'P45983'
p1431
aS'Q15713'
p1432
aS'Q15712'
p1433
aS'Q308M2'
p1434
asg36
I6881
ssg37
Nsbsg38
(lp1435
sg40
g41
sg42
g41
sg43
g0
(g15
g2
Ntp1436
Rp1437
(dp1438
g19
(lp1439
sg21
(lp1440
sg23
Nsg24
VRALB
p1441
sg26
Nsg27
(dp1442
g29
(lp1443
S'Q53T32'
p1444
aS'P11234'
p1445
aS'Q6ZS74'
p1446
asg36
I9840
ssg37
Nsbsg52
g41
sg53
g54
sbag0
(g9
g2
Ntp1447
Rp1448
(dp1449
g13
I185
sg14
g1424
sg38
g1435
sg40
g41
sg42
g41
sg43
g1437
sg52
g41
sg53
g58
sbag0
(g9
g2
Ntp1450
Rp1451
(dp1452
g13
I223
sg14
g0
(g15
g2
Ntp1453
Rp1454
(dp1455
g19
(lp1456
sg21
(lp1457
sg23
Nsg24
g67
sg26
Nsg27
(dp1458
g29
(lp1459
S'P53779'
p1460
aS'Q49AP1'
p1461
aS'Q15707'
p1462
asg36
I6872
ssg37
Nsbsg38
(lp1463
sg40
g41
sg42
g41
sg43
g0
(g15
g2
Ntp1464
Rp1465
(dp1466
g19
(lp1467
sg21
(lp1468
sg23
Nsg24
g1441
sg26
Nsg27
(dp1469
g29
(lp1470
S'Q53T32'
p1471
aS'P11234'
p1472
aS'Q6ZS74'
p1473
asg36
I9840
ssg37
Nsbsg52
g41
sg53
g58
sbag0
(g9
g2
Ntp1474
Rp1475
(dp1476
g13
I221
sg14
g1454
sg38
g1463
sg40
g41
sg42
g41
sg43
g1465
sg52
g41
sg53
g54
sbag0
(g9
g2
Ntp1477
Rp1478
(dp1479
g13
I185
sg14
g0
(g15
g2
Ntp1480
Rp1481
(dp1482
g19
(lp1483
sg21
(lp1484
sg23
Nsg24
g93
sg26
Nsg27
(dp1485
g29
(lp1486
S'Q15708'
p1487
aS'P45984'
p1488
aS'Q8N5C5'
p1489
aS'Q15711'
p1490
aS'Q15710'
p1491
asg36
I6886
ssg37
Nsbsg38
(lp1492
sg40
g41
sg42
g41
sg43
g0
(g15
g2
Ntp1493
Rp1494
(dp1495
g19
(lp1496
sg21
(lp1497
sg23
Nsg24
g1441
sg26
Nsg27
(dp1498
g29
(lp1499
S'Q53T32'
p1500
aS'P11234'
p1501
aS'Q6ZS74'
p1502
asg36
I9840
ssg37
Nsbsg52
g41
sg53
g58
sbag0
(g9
g2
Ntp1503
Rp1504
(dp1505
g13
I183
sg14
g1481
sg38
g1492
sg40
g41
sg42
g41
sg43
g1494
sg52
g41
sg53
g54
sbag0
(g9
g2
Ntp1506
Rp1507
(dp1508
g13
I373
sg14
g0
(g15
g2
Ntp1509
Rp1510
(dp1511
g19
(lp1512
sg21
(lp1513
sg23
Nsg24
g210
sg26
Nsg27
(dp1514
g29
(lp1515
S'Q3MIN6'
p1516
aS'Q13878'
p1517
aS'Q9UDP8'
p1518
aS'Q9Y6T3'
p1519
aS'P15056'
p1520
asg36
I1097
ssg37
Nsbsg38
(lp1521
sg40
g41
sg42
g41
sg43
g0
(g15
g2
Ntp1522
Rp1523
(dp1524
g19
(lp1525
sg21
(lp1526
sg23
Nsg24
VRIT1
p1527
sg26
Nsg27
(dp1528
g29
(lp1529
S'Q5VY90'
p1530
aS'Q5VY89'
p1531
aS'O00720'
p1532
aS'Q92963'
p1533
aS'O00646'
p1534
asg36
I10023
ssg37
Nsbsg52
g41
sg53
g54
sbag0
(g9
g2
Ntp1535
Rp1536
(dp1537
g13
I203
sg14
g0
(g15
g2
Ntp1538
Rp1539
(dp1540
g19
(lp1541
sg21
(lp1542
sg23
Nsg24
g142
sg26
Nsg27
(dp1543
g29
(lp1544
S'P27361'
p1545
aS'Q8NHX1'
p1546
asg36
I6877
ssg37
Nsbsg38
(lp1547
sg40
g41
sg42
g41
sg43
g0
(g15
g2
Ntp1548
Rp1549
(dp1550
g19
(lp1551
sg21
(lp1552
sg23
Nsg24
VMAP3K14
p1553
sg26
Nsg27
(dp1554
g29
(lp1555
S'Q99558'
p1556
aS'Q8IYN1'
p1557
asg36
I6853
ssg37
Nsbsg52
g41
sg53
g58
sbag0
(g9
g2
Ntp1558
Rp1559
(dp1560
g13
I201
sg14
g1539
sg38
g1547
sg40
g41
sg42
g41
sg43
g1549
sg52
g41
sg53
g54
sbag0
(g9
g2
Ntp1561
Rp1562
(dp1563
g13
I182
sg14
g0
(g15
g2
Ntp1564
Rp1565
(dp1566
g19
(lp1567
sg21
(lp1568
sg23
Nsg24
g177
sg26
Nsg27
(dp1569
g29
(lp1570
S'P28482'
p1571
asg36
I6871
ssg37
Nsbsg38
(lp1572
sg40
g41
sg42
g41
sg43
g0
(g15
g2
Ntp1573
Rp1574
(dp1575
g19
(lp1576
sg21
(lp1577
sg23
Nsg24
g1553
sg26
Nsg27
(dp1578
g29
(lp1579
S'Q99558'
p1580
aS'Q8IYN1'
p1581
asg36
I6853
ssg37
Nsbsg52
g41
sg53
g54
sbag0
(g9
g2
Ntp1582
Rp1583
(dp1584
g13
I184
sg14
g1565
sg38
g1572
sg40
g41
sg42
g41
sg43
g1574
sg52
g41
sg53
g58
sbag0
(g9
g2
Ntp1585
Rp1586
(dp1587
g13
I203
sg14
g0
(g15
g2
Ntp1588
Rp1589
(dp1590
g19
(lp1591
sg21
(lp1592
sg23
Nsg24
g142
sg26
Nsg27
(dp1593
g29
(lp1594
S'P27361'
p1595
aS'Q8NHX1'
p1596
asg36
I6877
ssg37
Nsbsg38
(lp1597
sg40
g41
sg42
g41
sg43
g0
(g15
g2
Ntp1598
Rp1599
(dp1600
g19
(lp1601
sg21
(lp1602
sg23
Nsg24
S'MEK1_2_active'
p1603
sg26
Nsg27
(dp1604
g29
(lp1605
sg36
Nssg37
Nsbsg52
g41
sg53
g58
sbag0
(g9
g2
Ntp1606
Rp1607
(dp1608
g13
I201
sg14
g1589
sg38
g1597
sg40
g41
sg42
g41
sg43
g1599
sg52
g41
sg53
g54
sbag0
(g9
g2
Ntp1609
Rp1610
(dp1611
g13
I182
sg14
g0
(g15
g2
Ntp1612
Rp1613
(dp1614
g19
(lp1615
sg21
(lp1616
sg23
Nsg24
g177
sg26
Nsg27
(dp1617
g29
(lp1618
S'P28482'
p1619
asg36
I6871
ssg37
Nsbsg38
(lp1620
sg40
g41
sg42
g41
sg43
g0
(g15
g2
Ntp1621
Rp1622
(dp1623
g19
(lp1624
sg21
(lp1625
sg23
Nsg24
S'MEK1_2_active'
p1626
sg26
Nsg27
(dp1627
g29
(lp1628
sg36
Nssg37
Nsbsg52
g41
sg53
g54
sbag0
(g9
g2
Ntp1629
Rp1630
(dp1631
g13
I184
sg14
g1613
sg38
g1620
sg40
g41
sg42
g41
sg43
g1622
sg52
g41
sg53
g58
sbag0
(g9
g2
Ntp1632
Rp1633
(dp1634
g13
I203
sg14
g0
(g15
g2
Ntp1635
Rp1636
(dp1637
g19
(lp1638
sg21
(lp1639
sg23
Nsg24
g142
sg26
Nsg27
(dp1640
g29
(lp1641
S'P27361'
p1642
aS'Q8NHX1'
p1643
asg36
I6877
ssg37
Nsbsg38
(lp1644
sg40
g41
sg42
g41
sg43
g0
(g15
g2
Ntp1645
Rp1646
(dp1647
g19
(lp1648
sg21
(lp1649
sg23
Nsg24
S'p14_3_3_family'
p1650
sg26
Nsg27
(dp1651
g29
(lp1652
sg36
Nssg37
Nsbsg52
g41
sg53
g58
sbag0
(g9
g2
Ntp1653
Rp1654
(dp1655
g13
I201
sg14
g1636
sg38
g1644
sg40
g41
sg42
g41
sg43
g1646
sg52
g41
sg53
g54
sbag0
(g9
g2
Ntp1656
Rp1657
(dp1658
g13
I182
sg14
g0
(g15
g2
Ntp1659
Rp1660
(dp1661
g19
(lp1662
sg21
(lp1663
sg23
Nsg24
g177
sg26
Nsg27
(dp1664
g29
(lp1665
S'P28482'
p1666
asg36
I6871
ssg37
Nsbsg38
(lp1667
sg40
g41
sg42
g41
sg43
g0
(g15
g2
Ntp1668
Rp1669
(dp1670
g19
(lp1671
sg21
(lp1672
sg23
Nsg24
S'p14_3_3_family'
p1673
sg26
Nsg27
(dp1674
g29
(lp1675
sg36
Nssg37
Nsbsg52
g41
sg53
g54
sbag0
(g9
g2
Ntp1676
Rp1677
(dp1678
g13
I184
sg14
g1660
sg38
g1667
sg40
g41
sg42
g41
sg43
g1669
sg52
g41
sg53
g58
sbag0
(g9
g2
Ntp1679
Rp1680
(dp1681
g13
Nsg14
g0
(g15
g2
Ntp1682
Rp1683
(dp1684
g19
(lp1685
sg21
(lp1686
sg23
Nsg24
S'p42_p44MAPKs'
p1687
sg26
Nsg27
(dp1688
g29
(lp1689
sg36
Nssg37
Nsbsg38
(lp1690
sg40
g41
sg42
g41
sg43
g0
(g15
g2
Ntp1691
Rp1692
(dp1693
g19
(lp1694
sg21
(lp1695
sg23
Nsg24
VRRAS
p1696
sg26
Nsg27
(dp1697
g29
(lp1698
S'Q6FH12'
p1699
aS'P10301'
p1700
asg36
I10447
ssg37
Nsbsg52
g41
sg53
g133
sbag0
(g9
g2
Ntp1701
Rp1702
(dp1703
g13
Nsg14
g0
(g15
g2
Ntp1704
Rp1705
(dp1706
g19
(lp1707
sg21
(lp1708
sg23
Nsg24
S'MEK'
p1709
sg26
Nsg27
(dp1710
g29
(lp1711
sg36
Nssg37
Nsbsg38
(lp1712
sg40
g41
sg42
g41
sg43
g0
(g15
g2
Ntp1713
Rp1714
(dp1715
g19
(lp1716
sg21
(lp1717
sg23
Nsg24
S'Raf'
p1718
sg26
Nsg27
(dp1719
g29
(lp1720
sg36
Nssg37
Nsbsg52
g41
sg53
g133
sbag0
(g9
g2
Ntp1721
Rp1722
(dp1723
g13
I183
sg14
g0
(g15
g2
Ntp1724
Rp1725
(dp1726
g19
(lp1727
sg21
(lp1728
sg23
Nsg24
g25
sg26
Nsg27
(dp1729
g29
(lp1730
S'Q15709'
p1731
aS'P45983'
p1732
aS'Q15713'
p1733
aS'Q15712'
p1734
aS'Q308M2'
p1735
asg36
I6881
ssg37
Nsbsg38
(lp1736
sg40
g41
sg42
g41
sg43
g0
(g15
g2
Ntp1737
Rp1738
(dp1739
g19
(lp1740
sg21
(lp1741
sg23
Nsg24
S'MKK4_MKK7'
p1742
sg26
Nsg27
(dp1743
g29
(lp1744
sg36
Nssg37
Nsbsg52
g41
sg53
g54
sbag0
(g9
g2
Ntp1745
Rp1746
(dp1747
g13
I185
sg14
g1725
sg38
g1736
sg40
g41
sg42
g41
sg43
g1738
sg52
g41
sg53
g58
sbag0
(g9
g2
Ntp1748
Rp1749
(dp1750
g13
I223
sg14
g0
(g15
g2
Ntp1751
Rp1752
(dp1753
g19
(lp1754
sg21
(lp1755
sg23
Nsg24
g67
sg26
Nsg27
(dp1756
g29
(lp1757
S'P53779'
p1758
aS'Q49AP1'
p1759
aS'Q15707'
p1760
asg36
I6872
ssg37
Nsbsg38
(lp1761
sg40
g41
sg42
g41
sg43
g0
(g15
g2
Ntp1762
Rp1763
(dp1764
g19
(lp1765
sg21
(lp1766
sg23
Nsg24
S'MKK4_MKK7'
p1767
sg26
Nsg27
(dp1768
g29
(lp1769
sg36
Nssg37
Nsbsg52
g41
sg53
g58
sbag0
(g9
g2
Ntp1770
Rp1771
(dp1772
g13
I221
sg14
g1752
sg38
g1761
sg40
g41
sg42
g41
sg43
g1763
sg52
g41
sg53
g54
sbag0
(g9
g2
Ntp1773
Rp1774
(dp1775
g13
I185
sg14
g0
(g15
g2
Ntp1776
Rp1777
(dp1778
g19
(lp1779
sg21
(lp1780
sg23
Nsg24
g93
sg26
Nsg27
(dp1781
g29
(lp1782
S'Q15708'
p1783
aS'P45984'
p1784
aS'Q8N5C5'
p1785
aS'Q15711'
p1786
aS'Q15710'
p1787
asg36
I6886
ssg37
Nsbsg38
(lp1788
sg40
g41
sg42
g41
sg43
g0
(g15
g2
Ntp1789
Rp1790
(dp1791
g19
(lp1792
sg21
(lp1793
sg23
Nsg24
S'MKK4_MKK7'
p1794
sg26
Nsg27
(dp1795
g29
(lp1796
sg36
Nssg37
Nsbsg52
g41
sg53
g58
sbag0
(g9
g2
Ntp1797
Rp1798
(dp1799
g13
I183
sg14
g1777
sg38
g1788
sg40
g41
sg42
g41
sg43
g1790
sg52
g41
sg53
g54
sbag0
(g9
g2
Ntp1800
Rp1801
(dp1802
g13
I203
sg14
g0
(g15
g2
Ntp1803
Rp1804
(dp1805
g19
(lp1806
sg21
(lp1807
sg23
Nsg24
g142
sg26
Nsg27
(dp1808
g29
(lp1809
S'P27361'
p1810
aS'Q8NHX1'
p1811
asg36
I6877
ssg37
Nsbsg38
(lp1812
sg40
g41
sg42
g41
sg43
g0
(g15
g2
Ntp1813
Rp1814
(dp1815
g19
(lp1816
sg21
(lp1817
sg23
Nsg24
VYWHAQ
p1818
sg26
Nsg27
(dp1819
g29
(lp1820
S'Q567U5'
p1821
aS'Q9UP48'
p1822
aS'P27348'
p1823
aS'Q5TZU8'
p1824
asg36
I12854
ssg37
Nsbsg52
g41
sg53
g58
sbag0
(g9
g2
Ntp1825
Rp1826
(dp1827
g13
I201
sg14
g1804
sg38
g1812
sg40
g41
sg42
g41
sg43
g1814
sg52
g41
sg53
g54
sbag0
(g9
g2
Ntp1828
Rp1829
(dp1830
g13
I182
sg14
g0
(g15
g2
Ntp1831
Rp1832
(dp1833
g19
(lp1834
sg21
(lp1835
sg23
Nsg24
g177
sg26
Nsg27
(dp1836
g29
(lp1837
S'P28482'
p1838
asg36
I6871
ssg37
Nsbsg38
(lp1839
sg40
g41
sg42
g41
sg43
g0
(g15
g2
Ntp1840
Rp1841
(dp1842
g19
(lp1843
sg21
(lp1844
sg23
Nsg24
g1818
sg26
Nsg27
(dp1845
g29
(lp1846
S'Q567U5'
p1847
aS'Q9UP48'
p1848
aS'P27348'
p1849
aS'Q5TZU8'
p1850
asg36
I12854
ssg37
Nsbsg52
g41
sg53
g54
sbag0
(g9
g2
Ntp1851
Rp1852
(dp1853
g13
I184
sg14
g1832
sg38
g1839
sg40
g41
sg42
g41
sg43
g1841
sg52
g41
sg53
g58
sbag0
(g9
g2
Ntp1854
Rp1855
(dp1856
g13
I507
sg14
g0
(g15
g2
Ntp1857
Rp1858
(dp1859
g19
(lp1860
sg21
(lp1861
sg23
Nsg24
g1302
sg26
Nsg27
(dp1862
g29
(lp1863
S'Q05655'
p1864
aS'Q15144'
p1865
aS'Q86XJ6'
p1866
asg36
I9399
ssg37
Nsbsg38
(lp1867
sg40
g41
sg42
g41
sg43
g0
(g15
g2
Ntp1868
Rp1869
(dp1870
g19
(lp1871
sg21
(lp1872
sg23
Nsg24
VPIK3R1
p1873
sg26
Nsg27
(dp1874
g29
(lp1875
S'Q4VBZ7'
p1876
aS'Q8N1C5'
p1877
aS'Q53EM6'
p1878
aS'Q15747'
p1879
aS'Q8IXA2'
p1880
aS'P27986'
p1881
asg36
I8979
ssg37
Nsbsg52
g41
sg53
g54
sbag0
(g9
g2
Ntp1882
Rp1883
(dp1884
g13
Nsg14
g0
(g15
g2
Ntp1885
Rp1886
(dp1887
g19
(lp1888
sg21
(lp1889
sg23
Nsg24
S'p42_p44MAPKs'
p1890
sg26
Nsg27
(dp1891
g29
(lp1892
sg36
Nssg37
Nsbsg38
(lp1893
sg40
g41
sg42
g41
sg43
g0
(g15
g2
Ntp1894
Rp1895
(dp1896
g19
(lp1897
sg21
(lp1898
sg23
Nsg24
VHRAS
p1899
sg26
Nsg27
(dp1900
g29
(lp1901
S'Q9UCE2'
p1902
aS'Q9BR65'
p1903
aS'Q6FHV9'
p1904
aS'P01112'
p1905
aS'Q14080'
p1906
asg36
I5173
ssg37
Nsbsg52
g41
sg53
g133
sbag0
(g9
g2
Ntp1907
Rp1908
(dp1909
g13
I621
sg14
g0
(g15
g2
Ntp1910
Rp1911
(dp1912
g19
(lp1913
sg21
(lp1914
sg23
Nsg24
g531
sg26
Nsg27
(dp1915
g29
(lp1916
S'Q15278'
p1917
aS'P04049'
p1918
aS'Q9UC20'
p1919
asg36
I9829
ssg37
Nsbsg38
(lp1920
sg40
g41
sg42
g41
sg43
g0
(g15
g2
Ntp1921
Rp1922
(dp1923
g19
(lp1924
sg21
(lp1925
sg23
Nsg24
g1899
sg26
Nsg27
(dp1926
g29
(lp1927
S'Q9UCE2'
p1928
aS'Q9BR65'
p1929
aS'Q6FHV9'
p1930
aS'P01112'
p1931
aS'Q14080'
p1932
asg36
I5173
ssg37
Nsbsg52
g41
sg53
g257
sbag0
(g9
g2
Ntp1933
Rp1934
(dp1935
g13
I268
sg14
g1911
sg38
g1920
sg40
g41
sg42
g41
sg43
g1922
sg52
g41
sg53
g54
sbag0
(g9
g2
Ntp1936
Rp1937
(dp1938
g13
I373
sg14
g0
(g15
g2
Ntp1939
Rp1940
(dp1941
g19
(lp1942
sg21
(lp1943
sg23
Nsg24
g210
sg26
Nsg27
(dp1944
g29
(lp1945
S'Q3MIN6'
p1946
aS'Q13878'
p1947
aS'Q9UDP8'
p1948
aS'Q9Y6T3'
p1949
aS'P15056'
p1950
asg36
I1097
ssg37
Nsbsg38
(lp1951
sg40
g41
sg42
g41
sg43
g0
(g15
g2
Ntp1952
Rp1953
(dp1954
g19
(lp1955
sg21
(lp1956
sg23
Nsg24
g1899
sg26
Nsg27
(dp1957
g29
(lp1958
S'Q9UCE2'
p1959
aS'Q9BR65'
p1960
aS'Q6FHV9'
p1961
aS'P01112'
p1962
aS'Q14080'
p1963
asg36
I5173
ssg37
Nsbsg52
g41
sg53
g54
sbag0
(g9
g2
Ntp1964
Rp1965
(dp1966
g13
I578
sg14
g0
(g15
g2
Ntp1967
Rp1968
(dp1969
g19
(lp1970
sg21
(lp1971
sg23
Nsg24
g210
sg26
Nsg27
(dp1972
g29
(lp1973
S'Q3MIN6'
p1974
aS'Q13878'
p1975
aS'Q9UDP8'
p1976
aS'Q9Y6T3'
p1977
aS'P15056'
p1978
asg36
I1097
ssg37
Nsbsg38
(lp1979
sg40
g41
sg42
g41
sg43
g0
(g15
g2
Ntp1980
Rp1981
(dp1982
g19
(lp1983
sg21
(lp1984
sg23
Nsg24
g1899
sg26
Nsg27
(dp1985
g29
(lp1986
S'Q9UCE2'
p1987
aS'Q9BR65'
p1988
aS'Q6FHV9'
p1989
aS'P01112'
p1990
aS'Q14080'
p1991
asg36
I5173
ssg37
Nsbsg52
g41
sg53
g257
sbag0
(g9
g2
Ntp1992
Rp1993
(dp1994
g13
I269
sg14
g0
(g15
g2
Ntp1995
Rp1996
(dp1997
g19
(lp1998
sg21
(lp1999
sg23
Nsg24
g531
sg26
Nsg27
(dp2000
g29
(lp2001
S'Q15278'
p2002
aS'P04049'
p2003
aS'Q9UC20'
p2004
asg36
I9829
ssg37
Nsbsg38
(lp2005
sg40
g41
sg42
g41
sg43
g0
(g15
g2
Ntp2006
Rp2007
(dp2008
g19
(lp2009
sg21
(lp2010
sg23
Nsg24
g1899
sg26
Nsg27
(dp2011
g29
(lp2012
S'Q9UCE2'
p2013
aS'Q9BR65'
p2014
aS'Q6FHV9'
p2015
aS'P01112'
p2016
aS'Q14080'
p2017
asg36
I5173
ssg37
Nsbsg52
g41
sg53
g54
sbag0
(g9
g2
Ntp2018
Rp2019
(dp2020
g13
I338
sg14
g0
(g15
g2
Ntp2021
Rp2022
(dp2023
g19
(lp2024
sg21
(lp2025
sg23
Nsg24
g531
sg26
Nsg27
(dp2026
g29
(lp2027
S'Q15278'
p2028
aS'P04049'
p2029
aS'Q9UC20'
p2030
asg36
I9829
ssg37
Nsbsg38
(lp2031
sg40
g41
sg42
g41
sg43
g0
(g15
g2
Ntp2032
Rp2033
(dp2034
g19
(lp2035
sg21
(lp2036
sg23
Nsg24
g1899
sg26
Nsg27
(dp2037
g29
(lp2038
S'Q9UCE2'
p2039
aS'Q9BR65'
p2040
aS'Q6FHV9'
p2041
aS'P01112'
p2042
aS'Q14080'
p2043
asg36
I5173
ssg37
Nsbsg52
g41
sg53
g257
sbag0
(g9
g2
Ntp2044
Rp2045
(dp2046
g13
I203
sg14
g0
(g15
g2
Ntp2047
Rp2048
(dp2049
g19
(lp2050
sg21
(lp2051
sg23
Nsg24
g142
sg26
Nsg27
(dp2052
g29
(lp2053
S'P27361'
p2054
aS'Q8NHX1'
p2055
asg36
I6877
ssg37
Nsbsg38
(lp2056
sg40
g41
sg42
g41
sg43
g0
(g15
g2
Ntp2057
Rp2058
(dp2059
g19
(lp2060
sg21
(lp2061
sg23
Nsg24
VPRKCA
p2062
sg26
Nsg27
(dp2063
g29
(lp2064
S'Q32M72'
p2065
aS'Q15137'
p2066
aS'P17252'
p2067
aS'Q96RE4'
p2068
asg36
I9393
ssg37
Nsbsg52
g41
sg53
g58
sbag0
(g9
g2
Ntp2069
Rp2070
(dp2071
g13
I201
sg14
g2048
sg38
g2056
sg40
g41
sg42
g41
sg43
g2058
sg52
g41
sg53
g54
sbag0
(g9
g2
Ntp2072
Rp2073
(dp2074
g13
I182
sg14
g0
(g15
g2
Ntp2075
Rp2076
(dp2077
g19
(lp2078
sg21
(lp2079
sg23
Nsg24
g177
sg26
Nsg27
(dp2080
g29
(lp2081
S'P28482'
p2082
asg36
I6871
ssg37
Nsbsg38
(lp2083
sg40
g41
sg42
g41
sg43
g0
(g15
g2
Ntp2084
Rp2085
(dp2086
g19
(lp2087
sg21
(lp2088
sg23
Nsg24
g2062
sg26
Nsg27
(dp2089
g29
(lp2090
S'Q32M72'
p2091
aS'Q15137'
p2092
aS'P17252'
p2093
aS'Q96RE4'
p2094
asg36
I9393
ssg37
Nsbsg52
g41
sg53
g54
sbag0
(g9
g2
Ntp2095
Rp2096
(dp2097
g13
I184
sg14
g2076
sg38
g2083
sg40
g41
sg42
g41
sg43
g2085
sg52
g41
sg53
g58
sbag0
(g9
g2
Ntp2098
Rp2099
(dp2100
g13
Nsg14
g0
(g15
g2
Ntp2101
Rp2102
(dp2103
g19
(lp2104
sg21
(lp2105
sg23
Nsg24
S'p42_p44MAPKs'
p2106
sg26
Nsg27
(dp2107
g29
(lp2108
sg36
Nssg37
Nsbsg38
(lp2109
sg40
g41
sg42
g41
sg43
g0
(g15
g2
Ntp2110
Rp2111
(dp2112
g19
(lp2113
sg21
(lp2114
sg23
Nsg24
VNRAS
p2115
sg26
Nsg27
(dp2116
g29
(lp2117
S'Q14971'
p2118
aS'P01111'
p2119
aS'Q15282'
p2120
aS'Q15104'
p2121
asg36
I7989
ssg37
Nsbsg52
g41
sg53
g133
sbag0
(g9
g2
Ntp2122
Rp2123
(dp2124
g13
I621
sg14
g0
(g15
g2
Ntp2125
Rp2126
(dp2127
g19
(lp2128
sg21
(lp2129
sg23
Nsg24
g531
sg26
Nsg27
(dp2130
g29
(lp2131
S'Q15278'
p2132
aS'P04049'
p2133
aS'Q9UC20'
p2134
asg36
I9829
ssg37
Nsbsg38
(lp2135
sg40
g41
sg42
g41
sg43
g0
(g15
g2
Ntp2136
Rp2137
(dp2138
g19
(lp2139
sg21
(lp2140
sg23
Nsg24
g2115
sg26
Nsg27
(dp2141
g29
(lp2142
S'Q14971'
p2143
aS'P01111'
p2144
aS'Q15282'
p2145
aS'Q15104'
p2146
asg36
I7989
ssg37
Nsbsg52
g41
sg53
g257
sbag0
(g9
g2
Ntp2147
Rp2148
(dp2149
g13
I268
sg14
g2126
sg38
g2135
sg40
g41
sg42
g41
sg43
g2137
sg52
g41
sg53
g54
sbag0
(g9
g2
Ntp2150
Rp2151
(dp2152
g13
I373
sg14
g0
(g15
g2
Ntp2153
Rp2154
(dp2155
g19
(lp2156
sg21
(lp2157
sg23
Nsg24
g210
sg26
Nsg27
(dp2158
g29
(lp2159
S'Q3MIN6'
p2160
aS'Q13878'
p2161
aS'Q9UDP8'
p2162
aS'Q9Y6T3'
p2163
aS'P15056'
p2164
asg36
I1097
ssg37
Nsbsg38
(lp2165
sg40
g41
sg42
g41
sg43
g0
(g15
g2
Ntp2166
Rp2167
(dp2168
g19
(lp2169
sg21
(lp2170
sg23
Nsg24
g2115
sg26
Nsg27
(dp2171
g29
(lp2172
S'Q14971'
p2173
aS'P01111'
p2174
aS'Q15282'
p2175
aS'Q15104'
p2176
asg36
I7989
ssg37
Nsbsg52
g41
sg53
g54
sbag0
(g9
g2
Ntp2177
Rp2178
(dp2179
g13
I578
sg14
g0
(g15
g2
Ntp2180
Rp2181
(dp2182
g19
(lp2183
sg21
(lp2184
sg23
Nsg24
g210
sg26
Nsg27
(dp2185
g29
(lp2186
S'Q3MIN6'
p2187
aS'Q13878'
p2188
aS'Q9UDP8'
p2189
aS'Q9Y6T3'
p2190
aS'P15056'
p2191
asg36
I1097
ssg37
Nsbsg38
(lp2192
sg40
g41
sg42
g41
sg43
g0
(g15
g2
Ntp2193
Rp2194
(dp2195
g19
(lp2196
sg21
(lp2197
sg23
Nsg24
g2115
sg26
Nsg27
(dp2198
g29
(lp2199
S'Q14971'
p2200
aS'P01111'
p2201
aS'Q15282'
p2202
aS'Q15104'
p2203
asg36
I7989
ssg37
Nsbsg52
g41
sg53
g257
sbag0
(g9
g2
Ntp2204
Rp2205
(dp2206
g13
I269
sg14
g0
(g15
g2
Ntp2207
Rp2208
(dp2209
g19
(lp2210
sg21
(lp2211
sg23
Nsg24
g531
sg26
Nsg27
(dp2212
g29
(lp2213
S'Q15278'
p2214
aS'P04049'
p2215
aS'Q9UC20'
p2216
asg36
I9829
ssg37
Nsbsg38
(lp2217
sg40
g41
sg42
g41
sg43
g0
(g15
g2
Ntp2218
Rp2219
(dp2220
g19
(lp2221
sg21
(lp2222
sg23
Nsg24
g2115
sg26
Nsg27
(dp2223
g29
(lp2224
S'Q14971'
p2225
aS'P01111'
p2226
aS'Q15282'
p2227
aS'Q15104'
p2228
asg36
I7989
ssg37
Nsbsg52
g41
sg53
g54
sbag0
(g9
g2
Ntp2229
Rp2230
(dp2231
g13
I203
sg14
g0
(g15
g2
Ntp2232
Rp2233
(dp2234
g19
(lp2235
sg21
(lp2236
sg23
Nsg24
g142
sg26
Nsg27
(dp2237
g29
(lp2238
S'P27361'
p2239
aS'Q8NHX1'
p2240
asg36
I6877
ssg37
Nsbsg38
(lp2241
sg40
g41
sg42
g41
sg43
g0
(g15
g2
Ntp2242
Rp2243
(dp2244
g19
(lp2245
sg21
(lp2246
sg23
Nsg24
VSTAT1
p2247
sg26
Nsg27
(dp2248
g29
(lp2249
S'Q68D00'
p2250
aS'Q53S88'
p2251
aS'Q53XW4'
p2252
aS'P42224'
p2253
aS'Q9UDL5'
p2254
asg36
I11362
ssg37
Nsbsg52
g41
sg53
g58
sbag0
(g9
g2
Ntp2255
Rp2256
(dp2257
g13
I201
sg14
g2233
sg38
g2241
sg40
g41
sg42
g41
sg43
g2243
sg52
g41
sg53
g54
sbag0
(g9
g2
Ntp2258
Rp2259
(dp2260
g13
I182
sg14
g0
(g15
g2
Ntp2261
Rp2262
(dp2263
g19
(lp2264
sg21
(lp2265
sg23
Nsg24
g177
sg26
Nsg27
(dp2266
g29
(lp2267
S'P28482'
p2268
asg36
I6871
ssg37
Nsbsg38
(lp2269
sg40
g41
sg42
g41
sg43
g0
(g15
g2
Ntp2270
Rp2271
(dp2272
g19
(lp2273
sg21
(lp2274
sg23
Nsg24
g2247
sg26
Nsg27
(dp2275
g29
(lp2276
S'Q68D00'
p2277
aS'Q53S88'
p2278
aS'Q53XW4'
p2279
aS'P42224'
p2280
aS'Q9UDL5'
p2281
asg36
I11362
ssg37
Nsbsg52
g41
sg53
g54
sbag0
(g9
g2
Ntp2282
Rp2283
(dp2284
g13
I184
sg14
g2262
sg38
g2269
sg40
g41
sg42
g41
sg43
g2271
sg52
g41
sg53
g58
sbag0
(g9
g2
Ntp2285
Rp2286
(dp2287
g13
Nsg14
g0
(g15
g2
Ntp2288
Rp2289
(dp2290
g19
(lp2291
sg21
(lp2292
sg23
Nsg24
S'p42_p44MAPKs'
p2293
sg26
Nsg27
(dp2294
g29
(lp2295
sg36
Nssg37
Nsbsg38
(lp2296
sg40
g41
sg42
g41
sg43
g0
(g15
g2
Ntp2297
Rp2298
(dp2299
g19
(lp2300
sg21
(lp2301
sg23
Nsg24
S'Ras_GTP'
p2302
sg26
Nsg27
(dp2303
g29
(lp2304
sg36
Nssg37
Nsbsg52
g41
sg53
g133
sbag0
(g9
g2
Ntp2305
Rp2306
(dp2307
g13
Nsg14
g0
(g15
g2
Ntp2308
Rp2309
(dp2310
g19
(lp2311
sg21
(lp2312
sg23
Nsg24
S'MEK1_2'
p2313
sg26
Nsg27
(dp2314
g29
(lp2315
sg36
Nssg37
Nsbsg38
(lp2316
sg40
g41
sg42
g41
sg43
g0
(g15
g2
Ntp2317
Rp2318
(dp2319
g19
(lp2320
sg21
(lp2321
sg23
Nsg24
S'Raf_1'
p2322
sg26
Nsg27
(dp2323
g29
(lp2324
sg36
Nssg37
Nsbsg52
g41
sg53
g133
sbag0
(g9
g2
Ntp2325
Rp2326
(dp2327
g13
I621
sg14
g0
(g15
g2
Ntp2328
Rp2329
(dp2330
g19
(lp2331
sg21
(lp2332
sg23
Nsg24
g531
sg26
Nsg27
(dp2333
g29
(lp2334
S'Q15278'
p2335
aS'P04049'
p2336
aS'Q9UC20'
p2337
asg36
I9829
ssg37
Nsbsg38
(lp2338
sg40
g41
sg42
g41
sg43
g0
(g15
g2
Ntp2339
Rp2340
(dp2341
g19
(lp2342
sg21
(lp2343
sg23
Nsg24
S'RAS_family'
p2344
sg26
Nsg27
(dp2345
g29
(lp2346
sg36
Nssg37
Nsbsg52
g41
sg53
g257
sbag0
(g9
g2
Ntp2347
Rp2348
(dp2349
g13
I268
sg14
g2329
sg38
g2338
sg40
g41
sg42
g41
sg43
g2340
sg52
g41
sg53
g54
sbag0
(g9
g2
Ntp2350
Rp2351
(dp2352
g13
I373
sg14
g0
(g15
g2
Ntp2353
Rp2354
(dp2355
g19
(lp2356
sg21
(lp2357
sg23
Nsg24
g210
sg26
Nsg27
(dp2358
g29
(lp2359
S'Q3MIN6'
p2360
aS'Q13878'
p2361
aS'Q9UDP8'
p2362
aS'Q9Y6T3'
p2363
aS'P15056'
p2364
asg36
I1097
ssg37
Nsbsg38
(lp2365
sg40
g41
sg42
g41
sg43
g0
(g15
g2
Ntp2366
Rp2367
(dp2368
g19
(lp2369
sg21
(lp2370
sg23
Nsg24
S'RAS_family'
p2371
sg26
Nsg27
(dp2372
g29
(lp2373
sg36
Nssg37
Nsbsg52
g41
sg53
g54
sbag0
(g9
g2
Ntp2374
Rp2375
(dp2376
g13
I578
sg14
g0
(g15
g2
Ntp2377
Rp2378
(dp2379
g19
(lp2380
sg21
(lp2381
sg23
Nsg24
g210
sg26
Nsg27
(dp2382
g29
(lp2383
S'Q3MIN6'
p2384
aS'Q13878'
p2385
aS'Q9UDP8'
p2386
aS'Q9Y6T3'
p2387
aS'P15056'
p2388
asg36
I1097
ssg37
Nsbsg38
(lp2389
sg40
g41
sg42
g41
sg43
g0
(g15
g2
Ntp2390
Rp2391
(dp2392
g19
(lp2393
sg21
(lp2394
sg23
Nsg24
S'RAS_family'
p2395
sg26
Nsg27
(dp2396
g29
(lp2397
sg36
Nssg37
Nsbsg52
g41
sg53
g257
sbag0
(g9
g2
Ntp2398
Rp2399
(dp2400
g13
I269
sg14
g0
(g15
g2
Ntp2401
Rp2402
(dp2403
g19
(lp2404
sg21
(lp2405
sg23
Nsg24
g531
sg26
Nsg27
(dp2406
g29
(lp2407
S'Q15278'
p2408
aS'P04049'
p2409
aS'Q9UC20'
p2410
asg36
I9829
ssg37
Nsbsg38
(lp2411
sg40
g41
sg42
g41
sg43
g0
(g15
g2
Ntp2412
Rp2413
(dp2414
g19
(lp2415
sg21
(lp2416
sg23
Nsg24
S'RAS_family'
p2417
sg26
Nsg27
(dp2418
g29
(lp2419
sg36
Nssg37
Nsbsg52
g41
sg53
g54
sbag0
(g9
g2
Ntp2420
Rp2421
(dp2422
g13
I183
sg14
g0
(g15
g2
Ntp2423
Rp2424
(dp2425
g19
(lp2426
sg21
(lp2427
sg23
Nsg24
g25
sg26
Nsg27
(dp2428
g29
(lp2429
S'Q15709'
p2430
aS'P45983'
p2431
aS'Q15713'
p2432
aS'Q15712'
p2433
aS'Q308M2'
p2434
asg36
I6881
ssg37
Nsbsg38
(lp2435
sg40
g41
sg42
g41
sg43
g0
(g15
g2
Ntp2436
Rp2437
(dp2438
g19
(lp2439
sg21
(lp2440
sg23
Nsg24
VCDC42
p2441
sg26
Nsg27
(dp2442
g29
(lp2443
S'Q7L8R5'
p2444
aS'Q9UDI2'
p2445
aS'P25763'
p2446
aS'P60953'
p2447
aS'P21181'
p2448
asg36
I1736
ssg37
Nsbsg52
g41
sg53
g54
sbag0
(g9
g2
Ntp2449
Rp2450
(dp2451
g13
I185
sg14
g2424
sg38
g2435
sg40
g41
sg42
g41
sg43
g2437
sg52
g41
sg53
g58
sbag0
(g9
g2
Ntp2452
Rp2453
(dp2454
g13
I223
sg14
g0
(g15
g2
Ntp2455
Rp2456
(dp2457
g19
(lp2458
sg21
(lp2459
sg23
Nsg24
g67
sg26
Nsg27
(dp2460
g29
(lp2461
S'P53779'
p2462
aS'Q49AP1'
p2463
aS'Q15707'
p2464
asg36
I6872
ssg37
Nsbsg38
(lp2465
sg40
g41
sg42
g41
sg43
g0
(g15
g2
Ntp2466
Rp2467
(dp2468
g19
(lp2469
sg21
(lp2470
sg23
Nsg24
g2441
sg26
Nsg27
(dp2471
g29
(lp2472
S'Q7L8R5'
p2473
aS'Q9UDI2'
p2474
aS'P25763'
p2475
aS'P60953'
p2476
aS'P21181'
p2477
asg36
I1736
ssg37
Nsbsg52
g41
sg53
g58
sbag0
(g9
g2
Ntp2478
Rp2479
(dp2480
g13
I221
sg14
g2456
sg38
g2465
sg40
g41
sg42
g41
sg43
g2467
sg52
g41
sg53
g54
sbag0
(g9
g2
Ntp2481
Rp2482
(dp2483
g13
I185
sg14
g0
(g15
g2
Ntp2484
Rp2485
(dp2486
g19
(lp2487
sg21
(lp2488
sg23
Nsg24
g93
sg26
Nsg27
(dp2489
g29
(lp2490
S'Q15708'
p2491
aS'P45984'
p2492
aS'Q8N5C5'
p2493
aS'Q15711'
p2494
aS'Q15710'
p2495
asg36
I6886
ssg37
Nsbsg38
(lp2496
sg40
g41
sg42
g41
sg43
g0
(g15
g2
Ntp2497
Rp2498
(dp2499
g19
(lp2500
sg21
(lp2501
sg23
Nsg24
g2441
sg26
Nsg27
(dp2502
g29
(lp2503
S'Q7L8R5'
p2504
aS'Q9UDI2'
p2505
aS'P25763'
p2506
aS'P60953'
p2507
aS'P21181'
p2508
asg36
I1736
ssg37
Nsbsg52
g41
sg53
g58
sbag0
(g9
g2
Ntp2509
Rp2510
(dp2511
g13
I183
sg14
g2485
sg38
g2496
sg40
g41
sg42
g41
sg43
g2498
sg52
g41
sg53
g54
sbag0
(g9
g2
Ntp2512
Rp2513
(dp2514
g13
I1400
sg14
g0
(g15
g2
Ntp2515
Rp2516
(dp2517
g19
(lp2518
sg21
(lp2519
sg23
Nsg24
g1275
sg26
Nsg27
(dp2520
g29
(lp2521
S'Q13233'
p2522
asg36
I6848
ssg37
Nsbsg38
(lp2523
sg40
g41
sg42
g41
sg43
g0
(g15
g2
Ntp2524
Rp2525
(dp2526
g19
(lp2527
sg21
(lp2528
sg23
Nsg24
g2441
sg26
Nsg27
(dp2529
g29
(lp2530
S'Q7L8R5'
p2531
aS'Q9UDI2'
p2532
aS'P25763'
p2533
aS'P60953'
p2534
aS'P21181'
p2535
asg36
I1736
ssg37
Nsbsg52
g41
sg53
g54
sbag0
(g9
g2
Ntp2536
Rp2537
(dp2538
g13
I1412
sg14
g2516
sg38
g2523
sg40
g41
sg42
g41
sg43
g2525
sg52
g41
sg53
g54
sbag0
(g9
g2
Ntp2539
Rp2540
(dp2541
g13
I621
sg14
g0
(g15
g2
Ntp2542
Rp2543
(dp2544
g19
(lp2545
sg21
(lp2546
sg23
Nsg24
g531
sg26
Nsg27
(dp2547
g29
(lp2548
S'Q15278'
p2549
aS'P04049'
p2550
aS'Q9UC20'
p2551
asg36
I9829
ssg37
Nsbsg38
(lp2552
sg40
g41
sg42
g41
sg43
g0
(g15
g2
Ntp2553
Rp2554
(dp2555
g19
(lp2556
sg21
(lp2557
sg23
Nsg24
VKRAS
p2558
sg26
Nsg27
(dp2559
g29
(lp2560
S'Q96D10'
p2561
aS'P01116'
p2562
aS'P01118'
p2563
asg36
I6407
ssg37
Nsbsg52
g41
sg53
g257
sbag0
(g9
g2
Ntp2564
Rp2565
(dp2566
g13
I268
sg14
g2543
sg38
g2552
sg40
g41
sg42
g41
sg43
g2554
sg52
g41
sg53
g54
sbag0
(g9
g2
Ntp2567
Rp2568
(dp2569
g13
I373
sg14
g0
(g15
g2
Ntp2570
Rp2571
(dp2572
g19
(lp2573
sg21
(lp2574
sg23
Nsg24
g210
sg26
Nsg27
(dp2575
g29
(lp2576
S'Q3MIN6'
p2577
aS'Q13878'
p2578
aS'Q9UDP8'
p2579
aS'Q9Y6T3'
p2580
aS'P15056'
p2581
asg36
I1097
ssg37
Nsbsg38
(lp2582
sg40
g41
sg42
g41
sg43
g0
(g15
g2
Ntp2583
Rp2584
(dp2585
g19
(lp2586
sg21
(lp2587
sg23
Nsg24
g2558
sg26
Nsg27
(dp2588
g29
(lp2589
S'Q96D10'
p2590
aS'P01116'
p2591
aS'P01118'
p2592
asg36
I6407
ssg37
Nsbsg52
g41
sg53
g54
sbag0
(g9
g2
Ntp2593
Rp2594
(dp2595
g13
I578
sg14
g0
(g15
g2
Ntp2596
Rp2597
(dp2598
g19
(lp2599
sg21
(lp2600
sg23
Nsg24
g210
sg26
Nsg27
(dp2601
g29
(lp2602
S'Q3MIN6'
p2603
aS'Q13878'
p2604
aS'Q9UDP8'
p2605
aS'Q9Y6T3'
p2606
aS'P15056'
p2607
asg36
I1097
ssg37
Nsbsg38
(lp2608
sg40
g41
sg42
g41
sg43
g0
(g15
g2
Ntp2609
Rp2610
(dp2611
g19
(lp2612
sg21
(lp2613
sg23
Nsg24
g2558
sg26
Nsg27
(dp2614
g29
(lp2615
S'Q96D10'
p2616
aS'P01116'
p2617
aS'P01118'
p2618
asg36
I6407
ssg37
Nsbsg52
g41
sg53
g257
sbag0
(g9
g2
Ntp2619
Rp2620
(dp2621
g13
I269
sg14
g0
(g15
g2
Ntp2622
Rp2623
(dp2624
g19
(lp2625
sg21
(lp2626
sg23
Nsg24
g531
sg26
Nsg27
(dp2627
g29
(lp2628
S'Q15278'
p2629
aS'P04049'
p2630
aS'Q9UC20'
p2631
asg36
I9829
ssg37
Nsbsg38
(lp2632
sg40
g41
sg42
g41
sg43
g0
(g15
g2
Ntp2633
Rp2634
(dp2635
g19
(lp2636
sg21
(lp2637
sg23
Nsg24
g2558
sg26
Nsg27
(dp2638
g29
(lp2639
S'Q96D10'
p2640
aS'P01116'
p2641
aS'P01118'
p2642
asg36
I6407
ssg37
Nsbsg52
g41
sg53
g54
sbag0
(g9
g2
Ntp2643
Rp2644
(dp2645
g13
I183
sg14
g0
(g15
g2
Ntp2646
Rp2647
(dp2648
g19
(lp2649
sg21
(lp2650
sg23
Nsg24
g25
sg26
Nsg27
(dp2651
g29
(lp2652
S'Q15709'
p2653
aS'P45983'
p2654
aS'Q15713'
p2655
aS'Q15712'
p2656
aS'Q308M2'
p2657
asg36
I6881
ssg37
Nsbsg38
(lp2658
sg40
g41
sg42
g41
sg43
g0
(g15
g2
Ntp2659
Rp2660
(dp2661
g19
(lp2662
sg21
(lp2663
sg23
Nsg24
VRHOA
p2664
sg26
Nsg27
(dp2665
g29
(lp2666
S'Q9UEJ4'
p2667
aS'Q5U024'
p2668
aS'P06749'
p2669
aS'Q53HM4'
p2670
aS'Q9UDJ0'
p2671
aS'P61586'
p2672
asg36
I667
ssg37
Nsbsg52
g41
sg53
g54
sbag0
(g9
g2
Ntp2673
Rp2674
(dp2675
g13
I185
sg14
g2647
sg38
g2658
sg40
g41
sg42
g41
sg43
g2660
sg52
g41
sg53
g58
sbag0
(g9
g2
Ntp2676
Rp2677
(dp2678
g13
I203
sg14
g0
(g15
g2
Ntp2679
Rp2680
(dp2681
g19
(lp2682
sg21
(lp2683
sg23
Nsg24
g142
sg26
Nsg27
(dp2684
g29
(lp2685
S'P27361'
p2686
aS'Q8NHX1'
p2687
asg36
I6877
ssg37
Nsbsg38
(lp2688
sg40
g41
sg42
g41
sg43
g0
(g15
g2
Ntp2689
Rp2690
(dp2691
g19
(lp2692
sg21
(lp2693
sg23
Nsg24
VYWHAG
p2694
sg26
Nsg27
(dp2695
g29
(lp2696
S'Q6FH52'
p2697
aS'Q9UN99'
p2698
aS'O70457'
p2699
aS'Q9UDP2'
p2700
aS'P35214'
p2701
aS'P61981'
p2702
asg36
I12852
ssg37
Nsbsg52
g41
sg53
g58
sbag0
(g9
g2
Ntp2703
Rp2704
(dp2705
g13
I201
sg14
g2680
sg38
g2688
sg40
g41
sg42
g41
sg43
g2690
sg52
g41
sg53
g54
sbag0
(g9
g2
Ntp2706
Rp2707
(dp2708
g13
I182
sg14
g0
(g15
g2
Ntp2709
Rp2710
(dp2711
g19
(lp2712
sg21
(lp2713
sg23
Nsg24
g177
sg26
Nsg27
(dp2714
g29
(lp2715
S'P28482'
p2716
asg36
I6871
ssg37
Nsbsg38
(lp2717
sg40
g41
sg42
g41
sg43
g0
(g15
g2
Ntp2718
Rp2719
(dp2720
g19
(lp2721
sg21
(lp2722
sg23
Nsg24
g2694
sg26
Nsg27
(dp2723
g29
(lp2724
S'Q6FH52'
p2725
aS'Q9UN99'
p2726
aS'O70457'
p2727
aS'Q9UDP2'
p2728
aS'P35214'
p2729
aS'P61981'
p2730
asg36
I12852
ssg37
Nsbsg52
g41
sg53
g54
sbag0
(g9
g2
Ntp2731
Rp2732
(dp2733
g13
I184
sg14
g2710
sg38
g2717
sg40
g41
sg42
g41
sg43
g2719
sg52
g41
sg53
g58
sbag0
(g9
g2
Ntp2734
Rp2735
(dp2736
g13
Nsg14
g0
(g15
g2
Ntp2737
Rp2738
(dp2739
g19
(lp2740
sg21
(lp2741
sg23
Nsg24
S'MEK'
p2742
sg26
Nsg27
(dp2743
g29
(lp2744
sg36
Nssg37
Nsbsg38
(lp2745
sg40
g41
sg42
g41
sg43
g0
(g15
g2
Ntp2746
Rp2747
(dp2748
g19
(lp2749
sg21
(lp2750
sg23
Nsg24
VARAF
p2751
sg26
Nsg27
(dp2752
g29
(lp2753
S'Q5H9B2'
p2754
aS'Q5H9B3'
p2755
aS'P07557'
p2756
aS'P10398'
p2757
asg36
I646
ssg37
Nsbsg52
g41
sg53
g133
sbag0
(g9
g2
Ntp2758
Rp2759
(dp2760
g13
I-2147483648
sg14
g0
(g15
g2
Ntp2761
Rp2762
(dp2763
g19
(lp2764
sg21
(lp2765
sg23
Nsg24
S'ERK'
p2766
sg26
Nsg27
(dp2767
g29
(lp2768
sg36
Nssg37
Nsbsg38
(lp2769
sg40
g41
sg42
g41
sg43
g0
(g15
g2
Ntp2770
Rp2771
(dp2772
g19
(lp2773
sg21
(lp2774
sg23
Nsg24
S'MEK'
p2775
sg26
Nsg27
(dp2776
g29
(lp2777
sg36
Nssg37
Nsbsg52
g41
sg53
g133
sbag0
(g9
g2
Ntp2778
Rp2779
(dp2780
g13
I298
sg14
g0
(g15
g2
Ntp2781
Rp2782
(dp2783
g19
(lp2784
sg21
(lp2785
sg23
Nsg24
g240
sg26
Nsg27
(dp2786
g29
(lp2787
S'Q02750'
p2788
asg36
I6840
ssg37
Nsbsg38
(lp2789
sg40
g41
sg42
g41
sg43
g0
(g15
g2
Ntp2790
Rp2791
(dp2792
g19
(lp2793
sg21
(lp2794
sg23
Nsg24
VPAK1
p2795
sg26
Nsg27
(dp2796
g29
(lp2797
S'Q32M53'
p2798
aS'Q32M54'
p2799
aS'Q13153'
p2800
aS'O75561'
p2801
aS'Q86W79'
p2802
aS'Q13567'
p2803
asg36
I8590
ssg37
Nsbsg52
g41
sg53
g257
sbag0
(g9
g2
Ntp2804
Rp2805
(dp2806
g13
I183
sg14
g0
(g15
g2
Ntp2807
Rp2808
(dp2809
g19
(lp2810
sg21
(lp2811
sg23
Nsg24
g25
sg26
Nsg27
(dp2812
g29
(lp2813
S'Q15709'
p2814
aS'P45983'
p2815
aS'Q15713'
p2816
aS'Q15712'
p2817
aS'Q308M2'
p2818
asg36
I6881
ssg37
Nsbsg38
(lp2819
sg40
g41
sg42
g41
sg43
g0
(g15
g2
Ntp2820
Rp2821
(dp2822
g19
(lp2823
sg21
(lp2824
sg23
Nsg24
S'RAC1_CDC42'
p2825
sg26
Nsg27
(dp2826
g29
(lp2827
sg36
Nssg37
Nsbsg52
g41
sg53
g54
sbag0
(g9
g2
Ntp2828
Rp2829
(dp2830
g13
I185
sg14
g2808
sg38
g2819
sg40
g41
sg42
g41
sg43
g2821
sg52
g41
sg53
g58
sbag0
(g9
g2
Ntp2831
Rp2832
(dp2833
g13
I223
sg14
g0
(g15
g2
Ntp2834
Rp2835
(dp2836
g19
(lp2837
sg21
(lp2838
sg23
Nsg24
g67
sg26
Nsg27
(dp2839
g29
(lp2840
S'P53779'
p2841
aS'Q49AP1'
p2842
aS'Q15707'
p2843
asg36
I6872
ssg37
Nsbsg38
(lp2844
sg40
g41
sg42
g41
sg43
g0
(g15
g2
Ntp2845
Rp2846
(dp2847
g19
(lp2848
sg21
(lp2849
sg23
Nsg24
S'RAC1_CDC42'
p2850
sg26
Nsg27
(dp2851
g29
(lp2852
sg36
Nssg37
Nsbsg52
g41
sg53
g58
sbag0
(g9
g2
Ntp2853
Rp2854
(dp2855
g13
I221
sg14
g2835
sg38
g2844
sg40
g41
sg42
g41
sg43
g2846
sg52
g41
sg53
g54
sbag0
(g9
g2
Ntp2856
Rp2857
(dp2858
g13
I185
sg14
g0
(g15
g2
Ntp2859
Rp2860
(dp2861
g19
(lp2862
sg21
(lp2863
sg23
Nsg24
g93
sg26
Nsg27
(dp2864
g29
(lp2865
S'Q15708'
p2866
aS'P45984'
p2867
aS'Q8N5C5'
p2868
aS'Q15711'
p2869
aS'Q15710'
p2870
asg36
I6886
ssg37
Nsbsg38
(lp2871
sg40
g41
sg42
g41
sg43
g0
(g15
g2
Ntp2872
Rp2873
(dp2874
g19
(lp2875
sg21
(lp2876
sg23
Nsg24
S'RAC1_CDC42'
p2877
sg26
Nsg27
(dp2878
g29
(lp2879
sg36
Nssg37
Nsbsg52
g41
sg53
g58
sbag0
(g9
g2
Ntp2880
Rp2881
(dp2882
g13
I183
sg14
g2860
sg38
g2871
sg40
g41
sg42
g41
sg43
g2873
sg52
g41
sg53
g54
sbag0
(g9
g2
Ntp2883
Rp2884
(dp2885
g13
I373
sg14
g0
(g15
g2
Ntp2886
Rp2887
(dp2888
g19
(lp2889
sg21
(lp2890
sg23
Nsg24
g210
sg26
Nsg27
(dp2891
g29
(lp2892
S'Q3MIN6'
p2893
aS'Q13878'
p2894
aS'Q9UDP8'
p2895
aS'Q9Y6T3'
p2896
aS'P15056'
p2897
asg36
I1097
ssg37
Nsbsg38
(lp2898
sg40
g41
sg42
g41
sg43
g0
(g15
g2
Ntp2899
Rp2900
(dp2901
g19
(lp2902
sg21
(lp2903
sg23
Nsg24
VRAP1B
p2904
sg26
Nsg27
(dp2905
g29
(lp2906
S'Q502X3'
p2907
aS'Q6DCA1'
p2908
aS'P09526'
p2909
aS'Q5TZR4'
p2910
aS'Q6LES0'
p2911
aS'P61224'
p2912
asg36
I9857
ssg37
Nsbsg52
g41
sg53
g54
sbag0
(g9
g2
Ntp2913
Rp2914
(dp2915
g13
I183
sg14
g0
(g15
g2
Ntp2916
Rp2917
(dp2918
g19
(lp2919
sg21
(lp2920
sg23
Nsg24
g25
sg26
Nsg27
(dp2921
g29
(lp2922
S'Q15709'
p2923
aS'P45983'
p2924
aS'Q15713'
p2925
aS'Q15712'
p2926
aS'Q308M2'
p2927
asg36
I6881
ssg37
Nsbsg38
(lp2928
sg40
g41
sg42
g41
sg43
g0
(g15
g2
Ntp2929
Rp2930
(dp2931
g19
(lp2932
sg21
(lp2933
sg23
Nsg24
VRAC1
p2934
sg26
Nsg27
(dp2935
g29
(lp2936
S'P15154'
p2937
aS'Q3Y4D3'
p2938
aS'Q5JAA8'
p2939
aS'O95501'
p2940
aS'Q9BTB4'
p2941
aS'P63000'
p2942
asg36
I9801
ssg37
Nsbsg52
g41
sg53
g54
sbag0
(g9
g2
Ntp2943
Rp2944
(dp2945
g13
I185
sg14
g2917
sg38
g2928
sg40
g41
sg42
g41
sg43
g2930
sg52
g41
sg53
g58
sbag0
(g9
g2
Ntp2946
Rp2947
(dp2948
g13
I223
sg14
g0
(g15
g2
Ntp2949
Rp2950
(dp2951
g19
(lp2952
sg21
(lp2953
sg23
Nsg24
g67
sg26
Nsg27
(dp2954
g29
(lp2955
S'P53779'
p2956
aS'Q49AP1'
p2957
aS'Q15707'
p2958
asg36
I6872
ssg37
Nsbsg38
(lp2959
sg40
g41
sg42
g41
sg43
g0
(g15
g2
Ntp2960
Rp2961
(dp2962
g19
(lp2963
sg21
(lp2964
sg23
Nsg24
g2934
sg26
Nsg27
(dp2965
g29
(lp2966
S'P15154'
p2967
aS'Q3Y4D3'
p2968
aS'Q5JAA8'
p2969
aS'O95501'
p2970
aS'Q9BTB4'
p2971
aS'P63000'
p2972
asg36
I9801
ssg37
Nsbsg52
g41
sg53
g58
sbag0
(g9
g2
Ntp2973
Rp2974
(dp2975
g13
I221
sg14
g2950
sg38
g2959
sg40
g41
sg42
g41
sg43
g2961
sg52
g41
sg53
g54
sbag0
(g9
g2
Ntp2976
Rp2977
(dp2978
g13
I185
sg14
g0
(g15
g2
Ntp2979
Rp2980
(dp2981
g19
(lp2982
sg21
(lp2983
sg23
Nsg24
g93
sg26
Nsg27
(dp2984
g29
(lp2985
S'Q15708'
p2986
aS'P45984'
p2987
aS'Q8N5C5'
p2988
aS'Q15711'
p2989
aS'Q15710'
p2990
asg36
I6886
ssg37
Nsbsg38
(lp2991
sg40
g41
sg42
g41
sg43
g0
(g15
g2
Ntp2992
Rp2993
(dp2994
g19
(lp2995
sg21
(lp2996
sg23
Nsg24
g2934
sg26
Nsg27
(dp2997
g29
(lp2998
S'P15154'
p2999
aS'Q3Y4D3'
p3000
aS'Q5JAA8'
p3001
aS'O95501'
p3002
aS'Q9BTB4'
p3003
aS'P63000'
p3004
asg36
I9801
ssg37
Nsbsg52
g41
sg53
g58
sbag0
(g9
g2
Ntp3005
Rp3006
(dp3007
g13
I183
sg14
g2980
sg38
g2991
sg40
g41
sg42
g41
sg43
g2993
sg52
g41
sg53
g54
sbag0
(g9
g2
Ntp3008
Rp3009
(dp3010
g13
I257
sg14
g0
(g15
g2
Ntp3011
Rp3012
(dp3013
g19
(lp3014
sg21
(lp3015
sg23
Nsg24
VMAP2K4
p3016
sg26
Nsg27
(dp3017
g29
(lp3018
S'P45985'
p3019
aS'Q6PIE6'
p3020
aS'Q6P9H2'
p3021
aS'Q5U0B8'
p3022
aS'Q6FHX4'
p3023
asg36
I6844
ssg37
Nsbsg38
(lp3024
sg40
g41
sg42
g41
sg43
g0
(g15
g2
Ntp3025
Rp3026
(dp3027
g19
(lp3028
sg21
(lp3029
sg23
Nsg24
g2934
sg26
Nsg27
(dp3030
g29
(lp3031
S'P15154'
p3032
aS'Q3Y4D3'
p3033
aS'Q5JAA8'
p3034
aS'O95501'
p3035
aS'Q9BTB4'
p3036
aS'P63000'
p3037
asg36
I9801
ssg37
Nsbsg52
g41
sg53
g257
sbag0
(g9
g2
Ntp3038
Rp3039
(dp3040
g13
I261
sg14
g3012
sg38
g3024
sg40
g41
sg42
g41
sg43
g3026
sg52
g41
sg53
g54
sbag0
(g9
g2
Ntp3041
Rp3042
(dp3043
g13
I1400
sg14
g0
(g15
g2
Ntp3044
Rp3045
(dp3046
g19
(lp3047
sg21
(lp3048
sg23
Nsg24
g1275
sg26
Nsg27
(dp3049
g29
(lp3050
S'Q13233'
p3051
asg36
I6848
ssg37
Nsbsg38
(lp3052
sg40
g41
sg42
g41
sg43
g0
(g15
g2
Ntp3053
Rp3054
(dp3055
g19
(lp3056
sg21
(lp3057
sg23
Nsg24
g2934
sg26
Nsg27
(dp3058
g29
(lp3059
S'P15154'
p3060
aS'Q3Y4D3'
p3061
aS'Q5JAA8'
p3062
aS'O95501'
p3063
aS'Q9BTB4'
p3064
aS'P63000'
p3065
asg36
I9801
ssg37
Nsbsg52
g41
sg53
g54
sbag0
(g9
g2
Ntp3066
Rp3067
(dp3068
g13
I1412
sg14
g3045
sg38
g3052
sg40
g41
sg42
g41
sg43
g3054
sg52
g41
sg53
g54
sbag0
(g9
g2
Ntp3069
Rp3070
(dp3071
g13
I-2147483648
sg14
g0
(g15
g2
Ntp3072
Rp3073
(dp3074
g19
(lp3075
sg21
(lp3076
sg23
Nsg24
S'ERK'
p3077
sg26
Nsg27
(dp3078
g29
(lp3079
sg36
Nssg37
Nsbsg38
(lp3080
sg40
g41
sg42
g41
sg43
g0
(g15
g2
Ntp3081
Rp3082
(dp3083
g19
(lp3084
sg21
(lp3085
sg23
Nsg24
g240
sg26
Nsg27
(dp3086
g29
(lp3087
S'Q02750'
p3088
asg36
I6840
ssg37
Nsbsg52
g41
sg53
g133
sbag0
(g9
g2
Ntp3089
Rp3090
(dp3091
g13
Nsg14
g0
(g15
g2
Ntp3092
Rp3093
(dp3094
g19
(lp3095
sg21
(lp3096
sg23
Nsg24
S'ERK1_2'
p3097
sg26
Nsg27
(dp3098
g29
(lp3099
sg36
Nssg37
Nsbsg38
(lp3100
sg40
g41
sg42
g41
sg43
g0
(g15
g2
Ntp3101
Rp3102
(dp3103
g19
(lp3104
sg21
(lp3105
sg23
Nsg24
g240
sg26
Nsg27
(dp3106
g29
(lp3107
S'Q02750'
p3108
asg36
I6840
ssg37
Nsbsg52
g41
sg53
g133
sbag0
(g9
g2
Ntp3109
Rp3110
(dp3111
g13
Nsg14
g0
(g15
g2
Ntp3112
Rp3113
(dp3114
g19
(lp3115
sg21
(lp3116
sg23
Nsg24
S'ERK'
p3117
sg26
Nsg27
(dp3118
g29
(lp3119
sg36
Nssg37
Nsbsg38
(lp3120
sg40
g41
sg42
g41
sg43
g0
(g15
g2
Ntp3121
Rp3122
(dp3123
g19
(lp3124
sg21
(lp3125
sg23
Nsg24
g240
sg26
Nsg27
(dp3126
g29
(lp3127
S'Q02750'
p3128
asg36
I6840
ssg37
Nsbsg52
g41
sg53
g133
sbag0
(g9
g2
Ntp3129
Rp3130
(dp3131
g13
I203
sg14
g0
(g15
g2
Ntp3132
Rp3133
(dp3134
g19
(lp3135
sg21
(lp3136
sg23
Nsg24
g142
sg26
Nsg27
(dp3137
g29
(lp3138
S'P27361'
p3139
aS'Q8NHX1'
p3140
asg36
I6877
ssg37
Nsbsg38
(lp3141
sg40
g41
sg42
g41
sg43
g0
(g15
g2
Ntp3142
Rp3143
(dp3144
g19
(lp3145
sg21
(lp3146
sg23
Nsg24
g240
sg26
Nsg27
(dp3147
g29
(lp3148
S'Q02750'
p3149
asg36
I6840
ssg37
Nsbsg52
g41
sg53
g58
sbag0
(g9
g2
Ntp3150
Rp3151
(dp3152
g13
I201
sg14
g3133
sg38
g3141
sg40
g41
sg42
g41
sg43
g3143
sg52
g41
sg53
g54
sbag0
(g9
g2
Ntp3153
Rp3154
(dp3155
g13
I182
sg14
g0
(g15
g2
Ntp3156
Rp3157
(dp3158
g19
(lp3159
sg21
(lp3160
sg23
Nsg24
g177
sg26
Nsg27
(dp3161
g29
(lp3162
S'P28482'
p3163
asg36
I6871
ssg37
Nsbsg38
(lp3164
sg40
g41
sg42
g41
sg43
g0
(g15
g2
Ntp3165
Rp3166
(dp3167
g19
(lp3168
sg21
(lp3169
sg23
Nsg24
g240
sg26
Nsg27
(dp3170
g29
(lp3171
S'Q02750'
p3172
asg36
I6840
ssg37
Nsbsg52
g41
sg53
g54
sbag0
(g9
g2
Ntp3173
Rp3174
(dp3175
g13
I184
sg14
g3157
sg38
g3164
sg40
g41
sg42
g41
sg43
g3166
sg52
g41
sg53
g58
sbag0
(g9
g2
Ntp3176
Rp3177
(dp3178
g13
I183
sg14
g0
(g15
g2
Ntp3179
Rp3180
(dp3181
g19
(lp3182
sg21
(lp3183
sg23
Nsg24
g177
sg26
Nsg27
(dp3184
g29
(lp3185
S'P28482'
p3186
asg36
I6871
ssg37
Nsbsg38
(lp3187
sg40
g41
sg42
g41
sg43
g0
(g15
g2
Ntp3188
Rp3189
(dp3190
g19
(lp3191
sg21
(lp3192
sg23
Nsg24
g240
sg26
Nsg27
(dp3193
g29
(lp3194
S'Q02750'
p3195
asg36
I6840
ssg37
Nsbsg52
g41
sg53
g54
sbag0
(g9
g2
Ntp3196
Rp3197
(dp3198
g13
I185
sg14
g3180
sg38
g3187
sg40
g41
sg42
g41
sg43
g3189
sg52
g41
sg53
g58
sbag0
(g9
g2
Ntp3199
Rp3200
(dp3201
g13
I185
sg14
g0
(g15
g2
Ntp3202
Rp3203
(dp3204
g19
(lp3205
sg21
(lp3206
sg23
Nsg24
g177
sg26
Nsg27
(dp3207
g29
(lp3208
S'P28482'
p3209
asg36
I6871
ssg37
Nsbsg38
(lp3210
sg40
g41
sg42
g41
sg43
g0
(g15
g2
Ntp3211
Rp3212
(dp3213
g19
(lp3214
sg21
(lp3215
sg23
Nsg24
g240
sg26
Nsg27
(dp3216
g29
(lp3217
S'Q02750'
p3218
asg36
I6840
ssg37
Nsbsg52
g41
sg53
g54
sbag0
(g9
g2
Ntp3219
Rp3220
(dp3221
g13
I187
sg14
g3203
sg38
g3210
sg40
g41
sg42
g41
sg43
g3212
sg52
g41
sg53
g58
sbag0
(g9
g2
Ntp3222
Rp3223
(dp3224
g13
I204
sg14
g0
(g15
g2
Ntp3225
Rp3226
(dp3227
g19
(lp3228
sg21
(lp3229
sg23
Nsg24
g142
sg26
Nsg27
(dp3230
g29
(lp3231
S'P27361'
p3232
aS'Q8NHX1'
p3233
asg36
I6877
ssg37
Nsbsg38
(lp3234
sg40
g41
sg42
g41
sg43
g0
(g15
g2
Ntp3235
Rp3236
(dp3237
g19
(lp3238
sg21
(lp3239
sg23
Nsg24
g240
sg26
Nsg27
(dp3240
g29
(lp3241
S'Q02750'
p3242
asg36
I6840
ssg37
Nsbsg52
g41
sg53
g58
sbag0
(g9
g2
Ntp3243
Rp3244
(dp3245
g13
I202
sg14
g3226
sg38
g3234
sg40
g41
sg42
g41
sg43
g3236
sg52
g41
sg53
g54
sbag0
(g9
g2
Ntp3246
Rp3247
(dp3248
g13
I203
sg14
g0
(g15
g2
Ntp3249
Rp3250
(dp3251
g19
(lp3252
sg21
(lp3253
sg23
Nsg24
g142
sg26
Nsg27
(dp3254
g29
(lp3255
S'P27361'
p3256
aS'Q8NHX1'
p3257
asg36
I6877
ssg37
Nsbsg38
(lp3258
sg40
g41
sg42
g41
sg43
g0
(g15
g2
Ntp3259
Rp3260
(dp3261
g19
(lp3262
sg21
(lp3263
sg23
Nsg24
VSFN
p3264
sg26
Nsg27
(dp3265
g29
(lp3266
S'Q6FH51'
p3267
aS'Q6FH30'
p3268
aS'P31947'
p3269
aS'Q96DH0'
p3270
asg36
I10773
ssg37
Nsbsg52
g41
sg53
g58
sbag0
(g9
g2
Ntp3271
Rp3272
(dp3273
g13
I201
sg14
g3250
sg38
g3258
sg40
g41
sg42
g41
sg43
g3260
sg52
g41
sg53
g54
sbag0
(g9
g2
Ntp3274
Rp3275
(dp3276
g13
I182
sg14
g0
(g15
g2
Ntp3277
Rp3278
(dp3279
g19
(lp3280
sg21
(lp3281
sg23
Nsg24
g177
sg26
Nsg27
(dp3282
g29
(lp3283
S'P28482'
p3284
asg36
I6871
ssg37
Nsbsg38
(lp3285
sg40
g41
sg42
g41
sg43
g0
(g15
g2
Ntp3286
Rp3287
(dp3288
g19
(lp3289
sg21
(lp3290
sg23
Nsg24
g3264
sg26
Nsg27
(dp3291
g29
(lp3292
S'Q6FH51'
p3293
aS'Q6FH30'
p3294
aS'P31947'
p3295
aS'Q96DH0'
p3296
asg36
I10773
ssg37
Nsbsg52
g41
sg53
g54
sbag0
(g9
g2
Ntp3297
Rp3298
(dp3299
g13
I184
sg14
g3278
sg38
g3285
sg40
g41
sg42
g41
sg43
g3287
sg52
g41
sg53
g58
sbag0
(g9
g2
Ntp3300
Rp3301
(dp3302
g13
I203
sg14
g0
(g15
g2
Ntp3303
Rp3304
(dp3305
g19
(lp3306
sg21
(lp3307
sg23
Nsg24
g142
sg26
Nsg27
(dp3308
g29
(lp3309
S'P27361'
p3310
aS'Q8NHX1'
p3311
asg36
I6877
ssg37
Nsbsg38
(lp3312
sg40
g41
sg42
g41
sg43
g0
(g15
g2
Ntp3313
Rp3314
(dp3315
g19
(lp3316
sg21
(lp3317
sg23
Nsg24
VYWHAB
p3318
sg26
Nsg27
(dp3319
g29
(lp3320
S'P31946'
p3321
asg36
I12849
ssg37
Nsbsg52
g41
sg53
g58
sbag0
(g9
g2
Ntp3322
Rp3323
(dp3324
g13
I201
sg14
g3304
sg38
g3312
sg40
g41
sg42
g41
sg43
g3314
sg52
g41
sg53
g54
sbag0
(g9
g2
Ntp3325
Rp3326
(dp3327
g13
I182
sg14
g0
(g15
g2
Ntp3328
Rp3329
(dp3330
g19
(lp3331
sg21
(lp3332
sg23
Nsg24
g177
sg26
Nsg27
(dp3333
g29
(lp3334
S'P28482'
p3335
asg36
I6871
ssg37
Nsbsg38
(lp3336
sg40
g41
sg42
g41
sg43
g0
(g15
g2
Ntp3337
Rp3338
(dp3339
g19
(lp3340
sg21
(lp3341
sg23
Nsg24
g3318
sg26
Nsg27
(dp3342
g29
(lp3343
S'P31946'
p3344
asg36
I12849
ssg37
Nsbsg52
g41
sg53
g54
sbag0
(g9
g2
Ntp3345
Rp3346
(dp3347
g13
I184
sg14
g3329
sg38
g3336
sg40
g41
sg42
g41
sg43
g3338
sg52
g41
sg53
g58
sbag0
(g9
g2
Ntp3348
Rp3349
(dp3350
g13
I183
sg14
g0
(g15
g2
Ntp3351
Rp3352
(dp3353
g19
(lp3354
sg21
(lp3355
sg23
Nsg24
g25
sg26
Nsg27
(dp3356
g29
(lp3357
S'Q15709'
p3358
aS'P45983'
p3359
aS'Q15713'
p3360
aS'Q15712'
p3361
aS'Q308M2'
p3362
asg36
I6881
ssg37
Nsbsg38
(lp3363
sg40
g41
sg42
g41
sg43
g0
(g15
g2
Ntp3364
Rp3365
(dp3366
g19
(lp3367
sg21
(lp3368
sg23
Nsg24
g3016
sg26
Nsg27
(dp3369
g29
(lp3370
S'P45985'
p3371
aS'Q6PIE6'
p3372
aS'Q6P9H2'
p3373
aS'Q5U0B8'
p3374
aS'Q6FHX4'
p3375
asg36
I6844
ssg37
Nsbsg52
g41
sg53
g54
sbag0
(g9
g2
Ntp3376
Rp3377
(dp3378
g13
I185
sg14
g3352
sg38
g3363
sg40
g41
sg42
g41
sg43
g3365
sg52
g41
sg53
g58
sbag0
(g9
g2
Ntp3379
Rp3380
(dp3381
g13
I223
sg14
g0
(g15
g2
Ntp3382
Rp3383
(dp3384
g19
(lp3385
sg21
(lp3386
sg23
Nsg24
g67
sg26
Nsg27
(dp3387
g29
(lp3388
S'P53779'
p3389
aS'Q49AP1'
p3390
aS'Q15707'
p3391
asg36
I6872
ssg37
Nsbsg38
(lp3392
sg40
g41
sg42
g41
sg43
g0
(g15
g2
Ntp3393
Rp3394
(dp3395
g19
(lp3396
sg21
(lp3397
sg23
Nsg24
g3016
sg26
Nsg27
(dp3398
g29
(lp3399
S'P45985'
p3400
aS'Q6PIE6'
p3401
aS'Q6P9H2'
p3402
aS'Q5U0B8'
p3403
aS'Q6FHX4'
p3404
asg36
I6844
ssg37
Nsbsg52
g41
sg53
g58
sbag0
(g9
g2
Ntp3405
Rp3406
(dp3407
g13
I221
sg14
g3383
sg38
g3392
sg40
g41
sg42
g41
sg43
g3394
sg52
g41
sg53
g54
sbag0
(g9
g2
Ntp3408
Rp3409
(dp3410
g13
I185
sg14
g0
(g15
g2
Ntp3411
Rp3412
(dp3413
g19
(lp3414
sg21
(lp3415
sg23
Nsg24
g93
sg26
Nsg27
(dp3416
g29
(lp3417
S'Q15708'
p3418
aS'P45984'
p3419
aS'Q8N5C5'
p3420
aS'Q15711'
p3421
aS'Q15710'
p3422
asg36
I6886
ssg37
Nsbsg38
(lp3423
sg40
g41
sg42
g41
sg43
g0
(g15
g2
Ntp3424
Rp3425
(dp3426
g19
(lp3427
sg21
(lp3428
sg23
Nsg24
g3016
sg26
Nsg27
(dp3429
g29
(lp3430
S'P45985'
p3431
aS'Q6PIE6'
p3432
aS'Q6P9H2'
p3433
aS'Q5U0B8'
p3434
aS'Q6FHX4'
p3435
asg36
I6844
ssg37
Nsbsg52
g41
sg53
g58
sbag0
(g9
g2
Ntp3436
Rp3437
(dp3438
g13
I183
sg14
g3412
sg38
g3423
sg40
g41
sg42
g41
sg43
g3425
sg52
g41
sg53
g54
sbag0
(g9
g2
Ntp3439
Rp3440
(dp3441
g13
I183
sg14
g0
(g15
g2
Ntp3442
Rp3443
(dp3444
g19
(lp3445
sg21
(lp3446
sg23
Nsg24
g25
sg26
Nsg27
(dp3447
g29
(lp3448
S'Q15709'
p3449
aS'P45983'
p3450
aS'Q15713'
p3451
aS'Q15712'
p3452
aS'Q308M2'
p3453
asg36
I6881
ssg37
Nsbsg38
(lp3454
sg40
g41
sg42
g41
sg43
g0
(g15
g2
Ntp3455
Rp3456
(dp3457
g19
(lp3458
sg21
(lp3459
sg23
Nsg24
VMAP2K7
p3460
sg26
Nsg27
(dp3461
g29
(lp3462
S'O14733'
p3463
aS'Q8IY10'
p3464
aS'Q1PG43'
p3465
aS'O14648'
p3466
aS'O14816'
p3467
aS'O60452'
p3468
aS'O60453'
p3469
asg36
I6847
ssg37
Nsbsg52
g41
sg53
g54
sbag0
(g9
g2
Ntp3470
Rp3471
(dp3472
g13
I185
sg14
g3443
sg38
g3454
sg40
g41
sg42
g41
sg43
g3456
sg52
g41
sg53
g58
sbag0
(g9
g2
Ntp3473
Rp3474
(dp3475
g13
I223
sg14
g0
(g15
g2
Ntp3476
Rp3477
(dp3478
g19
(lp3479
sg21
(lp3480
sg23
Nsg24
g67
sg26
Nsg27
(dp3481
g29
(lp3482
S'P53779'
p3483
aS'Q49AP1'
p3484
aS'Q15707'
p3485
asg36
I6872
ssg37
Nsbsg38
(lp3486
sg40
g41
sg42
g41
sg43
g0
(g15
g2
Ntp3487
Rp3488
(dp3489
g19
(lp3490
sg21
(lp3491
sg23
Nsg24
g3460
sg26
Nsg27
(dp3492
g29
(lp3493
S'O14733'
p3494
aS'Q8IY10'
p3495
aS'Q1PG43'
p3496
aS'O14648'
p3497
aS'O14816'
p3498
aS'O60452'
p3499
aS'O60453'
p3500
asg36
I6847
ssg37
Nsbsg52
g41
sg53
g58
sbag0
(g9
g2
Ntp3501
Rp3502
(dp3503
g13
I221
sg14
g3477
sg38
g3486
sg40
g41
sg42
g41
sg43
g3488
sg52
g41
sg53
g54
sbag0
(g9
g2
Ntp3504
Rp3505
(dp3506
g13
I185
sg14
g0
(g15
g2
Ntp3507
Rp3508
(dp3509
g19
(lp3510
sg21
(lp3511
sg23
Nsg24
g93
sg26
Nsg27
(dp3512
g29
(lp3513
S'Q15708'
p3514
aS'P45984'
p3515
aS'Q8N5C5'
p3516
aS'Q15711'
p3517
aS'Q15710'
p3518
asg36
I6886
ssg37
Nsbsg38
(lp3519
sg40
g41
sg42
g41
sg43
g0
(g15
g2
Ntp3520
Rp3521
(dp3522
g19
(lp3523
sg21
(lp3524
sg23
Nsg24
g3460
sg26
Nsg27
(dp3525
g29
(lp3526
S'O14733'
p3527
aS'Q8IY10'
p3528
aS'Q1PG43'
p3529
aS'O14648'
p3530
aS'O14816'
p3531
aS'O60452'
p3532
aS'O60453'
p3533
asg36
I6847
ssg37
Nsbsg52
g41
sg53
g58
sbag0
(g9
g2
Ntp3534
Rp3535
(dp3536
g13
I183
sg14
g3508
sg38
g3519
sg40
g41
sg42
g41
sg43
g3521
sg52
g41
sg53
g54
sbag0
(g9
g2
Ntp3537
Rp3538
(dp3539
g13
I218
sg14
g0
(g15
g2
Ntp3540
Rp3541
(dp3542
g19
(lp3543
sg21
(lp3544
sg23
Nsg24
g240
sg26
Nsg27
(dp3545
g29
(lp3546
S'Q02750'
p3547
asg36
I6840
ssg37
Nsbsg38
(lp3548
sg40
g41
sg42
g41
sg43
g0
(g15
g2
Ntp3549
Rp3550
(dp3551
g19
(lp3552
sg21
(lp3553
sg23
Nsg24
S'RAF1_BRAF'
p3554
sg26
Nsg27
(dp3555
g29
(lp3556
sg36
Nssg37
Nsbsg52
g41
sg53
g257
sbag0
(g9
g2
Ntp3557
Rp3558
(dp3559
g13
I222
sg14
g3541
sg38
g3548
sg40
g41
sg42
g41
sg43
g3550
sg52
g41
sg53
g257
sbag0
(g9
g2
Ntp3560
Rp3561
(dp3562
g13
I222
sg14
g0
(g15
g2
Ntp3563
Rp3564
(dp3565
g19
(lp3566
sg21
(lp3567
sg23
Nsg24
g269
sg26
Nsg27
(dp3568
g29
(lp3569
S'P36507'
p3570
asg36
I6842
ssg37
Nsbsg38
(lp3571
sg40
g41
sg42
g41
sg43
g0
(g15
g2
Ntp3572
Rp3573
(dp3574
g19
(lp3575
sg21
(lp3576
sg23
Nsg24
S'RAF1_BRAF'
p3577
sg26
Nsg27
(dp3578
g29
(lp3579
sg36
Nssg37
Nsbsg52
g41
sg53
g257
sbag0
(g9
g2
Ntp3580
Rp3581
(dp3582
g13
I226
sg14
g3564
sg38
g3571
sg40
g41
sg42
g41
sg43
g3573
sg52
g41
sg53
g257
sbag0
(g9
g2
Ntp3583
Rp3584
(dp3585
g13
I203
sg14
g0
(g15
g2
Ntp3586
Rp3587
(dp3588
g19
(lp3589
sg21
(lp3590
sg23
Nsg24
g142
sg26
Nsg27
(dp3591
g29
(lp3592
S'P27361'
p3593
aS'Q8NHX1'
p3594
asg36
I6877
ssg37
Nsbsg38
(lp3595
sg40
g41
sg42
g41
sg43
g0
(g15
g2
Ntp3596
Rp3597
(dp3598
g19
(lp3599
sg21
(lp3600
sg23
Nsg24
S'RAF1_BRAF'
p3601
sg26
Nsg27
(dp3602
g29
(lp3603
sg36
Nssg37
Nsbsg52
g41
sg53
g58
sbag0
(g9
g2
Ntp3604
Rp3605
(dp3606
g13
I201
sg14
g3587
sg38
g3595
sg40
g41
sg42
g41
sg43
g3597
sg52
g41
sg53
g54
sbag0
(g9
g2
Ntp3607
Rp3608
(dp3609
g13
I182
sg14
g0
(g15
g2
Ntp3610
Rp3611
(dp3612
g19
(lp3613
sg21
(lp3614
sg23
Nsg24
g177
sg26
Nsg27
(dp3615
g29
(lp3616
S'P28482'
p3617
asg36
I6871
ssg37
Nsbsg38
(lp3618
sg40
g41
sg42
g41
sg43
g0
(g15
g2
Ntp3619
Rp3620
(dp3621
g19
(lp3622
sg21
(lp3623
sg23
Nsg24
S'RAF1_BRAF'
p3624
sg26
Nsg27
(dp3625
g29
(lp3626
sg36
Nssg37
Nsbsg52
g41
sg53
g54
sbag0
(g9
g2
Ntp3627
Rp3628
(dp3629
g13
I184
sg14
g3611
sg38
g3618
sg40
g41
sg42
g41
sg43
g3620
sg52
g41
sg53
g58
sbag0
(g9
g2
Ntp3630
Rp3631
(dp3632
g13
I218
sg14
g0
(g15
g2
Ntp3633
Rp3634
(dp3635
g19
(lp3636
sg21
(lp3637
sg23
Nsg24
g240
sg26
Nsg27
(dp3638
g29
(lp3639
S'Q02750'
p3640
asg36
I6840
ssg37
Nsbsg38
(lp3641
sg40
g41
sg42
g41
sg43
g0
(g15
g2
Ntp3642
Rp3643
(dp3644
g19
(lp3645
sg21
(lp3646
sg23
Nsg24
g1275
sg26
Nsg27
(dp3647
g29
(lp3648
S'Q13233'
p3649
asg36
I6848
ssg37
Nsbsg52
g41
sg53
g257
sbag0
(g9
g2
Ntp3650
Rp3651
(dp3652
g13
I222
sg14
g3634
sg38
g3641
sg40
g41
sg42
g41
sg43
g3643
sg52
g41
sg53
g257
sbag0
(g9
g2
Ntp3653
Rp3654
(dp3655
g13
I203
sg14
g0
(g15
g2
Ntp3656
Rp3657
(dp3658
g19
(lp3659
sg21
(lp3660
sg23
Nsg24
g142
sg26
Nsg27
(dp3661
g29
(lp3662
S'P27361'
p3663
aS'Q8NHX1'
p3664
asg36
I6877
ssg37
Nsbsg38
(lp3665
sg40
g41
sg42
g41
sg43
g0
(g15
g2
Ntp3666
Rp3667
(dp3668
g19
(lp3669
sg21
(lp3670
sg23
Nsg24
VIL2
p3671
sg26
Nsg27
(dp3672
g29
(lp3673
S'P01585'
p3674
aS'P60568'
p3675
asg36
I6001
ssg37
Nsbsg52
g41
sg53
g58
sbag0
(g9
g2
Ntp3676
Rp3677
(dp3678
g13
I201
sg14
g3657
sg38
g3665
sg40
g41
sg42
g41
sg43
g3667
sg52
g41
sg53
g54
sbag0
(g9
g2
Ntp3679
Rp3680
(dp3681
g13
I182
sg14
g0
(g15
g2
Ntp3682
Rp3683
(dp3684
g19
(lp3685
sg21
(lp3686
sg23
Nsg24
g177
sg26
Nsg27
(dp3687
g29
(lp3688
S'P28482'
p3689
asg36
I6871
ssg37
Nsbsg38
(lp3690
sg40
g41
sg42
g41
sg43
g0
(g15
g2
Ntp3691
Rp3692
(dp3693
g19
(lp3694
sg21
(lp3695
sg23
Nsg24
g3671
sg26
Nsg27
(dp3696
g29
(lp3697
S'P01585'
p3698
aS'P60568'
p3699
asg36
I6001
ssg37
Nsbsg52
g41
sg53
g54
sbag0
(g9
g2
Ntp3700
Rp3701
(dp3702
g13
I184
sg14
g3683
sg38
g3690
sg40
g41
sg42
g41
sg43
g3692
sg52
g41
sg53
g58
sbasS'agent_set'
p3703
Nsb.