ccopy_reg
_reconstructor
p0
(cindra.pysb_assembler
PysbAssembler
p1
c__builtin__
object
p2
Ntp3
Rp4
(dp5
S'model'
p6
NsS'statements'
p7
(lp8
g0
(cindra.statements
Phosphorylation
p9
g2
Ntp10
Rp11
(dp12
S'mod_pos'
p13
S''
p14
sS'sub'
p15
g0
(cindra.statements
Agent
p16
g2
Ntp17
Rp18
(dp19
S'mod_sites'
p20
(lp21
sS'mods'
p22
(lp23
sS'bound_to'
p24
NsS'name'
p25
VMAP2K1
p26
sS'bound_neg'
p27
NsS'db_refs'
p28
(dp29
S'UP'
p30
S'Q02750'
p31
sS'HGNC'
p32
S'6840'
p33
ssS'active'
p34
NsbsS'citation'
p35
g14
sS'stmt'
p36
S'BRAF phosphorylates MAP2K1'
p37
sS'evidence'
p38
g37
sS'enz'
p39
g0
(g16
g2
Ntp40
Rp41
(dp42
g20
(lp43
sg22
(lp44
sg24
Nsg25
VBRAF
p45
sg27
Nsg28
(dp46
S'UP'
p47
S'P15056'
p48
sS'HGNC'
p49
S'1097'
p50
ssg34
NsbsS'annotations'
p51
g14
sS'mod'
p52
S'Phosphorylation'
p53
sbag0
(g9
g2
Ntp54
Rp55
(dp56
g13
g14
sg15
g0
(g16
g2
Ntp57
Rp58
(dp59
g20
(lp60
sg22
(lp61
sg24
Nsg25
g26
sg27
Nsg28
(dp62
S'UP'
p63
S'Q02750'
p64
sS'HGNC'
p65
S'6840'
p66
ssg34
Nsbsg35
g14
sg36
S'RAF phosphorylates MAP2K1'
p67
sg38
g67
sg39
g0
(g16
g2
Ntp68
Rp69
(dp70
g20
(lp71
sg22
(lp72
sg24
Nsg25
S'RAF'
p73
sg27
Nsg28
(dp74
S'FA'
p75
S'03114'
p76
ssg34
Nsbsg51
g14
sg52
g53
sbag0
(g9
g2
Ntp77
Rp78
(dp79
g13
g14
sg15
g0
(g16
g2
Ntp80
Rp81
(dp82
g20
(lp83
sg22
(lp84
sg24
Nsg25
g26
sg27
Nsg28
(dp85
S'UP'
p86
S'Q02750'
p87
sS'HGNC'
p88
S'6840'
p89
ssg34
Nsbsg35
g14
sg36
S'ARAF phosphorylates MAP2K1'
p90
sg38
g90
sg39
g0
(g16
g2
Ntp91
Rp92
(dp93
g20
(lp94
sg22
(lp95
sg24
Nsg25
VARAF
p96
sg27
Nsg28
(dp97
S'UP'
p98
S'P10398'
p99
sS'HGNC'
p100
S'646'
p101
ssg34
Nsbsg51
g14
sg52
g53
sbasS'agent_set'
p102
Nsb.